
DE10_LITE_Nios.elf:     file format elf32-littlenios2
DE10_LITE_Nios.elf
architecture: nios2:r1, flags 0x00000112:
EXEC_P, HAS_SYMS, D_PAGED
start address 0x04020230

Program Header:
    LOAD off    0x00001000 vaddr 0x04020000 paddr 0x04020000 align 2**12
         filesz 0x00000020 memsz 0x00000020 flags r-x
    LOAD off    0x00001020 vaddr 0x04020020 paddr 0x04020020 align 2**12
         filesz 0x000106d4 memsz 0x000106d4 flags r-x
    LOAD off    0x00012000 vaddr 0x00000000 paddr 0x040306f4 align 2**12
         filesz 0x00001f30 memsz 0x00002090 flags rw-

Sections:
Idx Name          Size      VMA       LMA       File off  Algn
  0 .entry        00000020  04020000  04020000  00001000  2**5
                  CONTENTS, ALLOC, LOAD, READONLY, CODE
  1 .exceptions   00000210  04020020  04020020  00001020  2**2
                  CONTENTS, ALLOC, LOAD, READONLY, CODE
  2 .text         000104c4  04020230  04020230  00001230  2**2
                  CONTENTS, ALLOC, LOAD, READONLY, CODE
  3 .rodata       00000444  00000000  040306f4  00012000  2**2
                  CONTENTS, ALLOC, LOAD, READONLY, DATA
  4 .rwdata       00001aec  00000444  04030b38  00012444  2**2
                  CONTENTS, ALLOC, LOAD, DATA, SMALL_DATA
  5 .bss          00000160  00001f30  04032624  00013f30  2**2
                  ALLOC, SMALL_DATA
  6 .sdram        00000000  00002090  00002090  00013f30  2**0
                  CONTENTS
  7 .onchip_memory2 00000000  04032624  04032624  00013f30  2**0
                  CONTENTS
  8 .comment      00000046  00000000  00000000  00013f30  2**0
                  CONTENTS, READONLY
  9 .debug_aranges 00000fb0  00000000  00000000  00013f78  2**3
                  CONTENTS, READONLY, DEBUGGING
 10 .debug_info   0002577d  00000000  00000000  00014f28  2**0
                  CONTENTS, READONLY, DEBUGGING
 11 .debug_abbrev 000098fa  00000000  00000000  0003a6a5  2**0
                  CONTENTS, READONLY, DEBUGGING
 12 .debug_line   0000bfed  00000000  00000000  00043f9f  2**0
                  CONTENTS, READONLY, DEBUGGING
 13 .debug_frame  000022a0  00000000  00000000  0004ff8c  2**2
                  CONTENTS, READONLY, DEBUGGING
 14 .debug_str    00003b43  00000000  00000000  0005222c  2**0
                  CONTENTS, READONLY, DEBUGGING
 15 .debug_loc    00017c81  00000000  00000000  00055d6f  2**0
                  CONTENTS, READONLY, DEBUGGING
 16 .debug_alt_sim_info 00000040  00000000  00000000  0006d9f0  2**2
                  CONTENTS, READONLY, DEBUGGING
 17 .debug_ranges 00001978  00000000  00000000  0006da30  2**3
                  CONTENTS, READONLY, DEBUGGING
 18 .thread_model 00000003  00000000  00000000  0007268e  2**0
                  CONTENTS, READONLY
 19 .cpu          0000000c  00000000  00000000  00072691  2**0
                  CONTENTS, READONLY
 20 .qsys         00000001  00000000  00000000  0007269d  2**0
                  CONTENTS, READONLY
 21 .simulation_enabled 00000001  00000000  00000000  0007269e  2**0
                  CONTENTS, READONLY
 22 .sysid_hash   00000004  00000000  00000000  0007269f  2**0
                  CONTENTS, READONLY
 23 .sysid_base   00000004  00000000  00000000  000726a3  2**0
                  CONTENTS, READONLY
 24 .sysid_time   00000004  00000000  00000000  000726a7  2**0
                  CONTENTS, READONLY
 25 .stderr_dev   00000009  00000000  00000000  000726ab  2**0
                  CONTENTS, READONLY
 26 .stdin_dev    00000009  00000000  00000000  000726b4  2**0
                  CONTENTS, READONLY
 27 .stdout_dev   00000009  00000000  00000000  000726bd  2**0
                  CONTENTS, READONLY
 28 .sopc_system_name 0000000e  00000000  00000000  000726c6  2**0
                  CONTENTS, READONLY
 29 .quartus_project_dir 00000018  00000000  00000000  000726d4  2**0
                  CONTENTS, READONLY
 30 .jdi          00005517  00000000  00000000  000726ec  2**0
                  CONTENTS, READONLY
 31 .sopcinfo     000666be  00000000  00000000  00077c03  2**0
                  CONTENTS, READONLY
SYMBOL TABLE:
04020000 l    d  .entry	00000000 .entry
04020020 l    d  .exceptions	00000000 .exceptions
04020230 l    d  .text	00000000 .text
00000000 l    d  .rodata	00000000 .rodata
00000444 l    d  .rwdata	00000000 .rwdata
00001f30 l    d  .bss	00000000 .bss
00002090 l    d  .sdram	00000000 .sdram
04032624 l    d  .onchip_memory2	00000000 .onchip_memory2
00000000 l    d  .comment	00000000 .comment
00000000 l    d  .debug_aranges	00000000 .debug_aranges
00000000 l    d  .debug_info	00000000 .debug_info
00000000 l    d  .debug_abbrev	00000000 .debug_abbrev
00000000 l    d  .debug_line	00000000 .debug_line
00000000 l    d  .debug_frame	00000000 .debug_frame
00000000 l    d  .debug_str	00000000 .debug_str
00000000 l    d  .debug_loc	00000000 .debug_loc
00000000 l    d  .debug_alt_sim_info	00000000 .debug_alt_sim_info
00000000 l    d  .debug_ranges	00000000 .debug_ranges
00000000 l    df *ABS*	00000000 ../DE10_LITE_Nios_bsp//obj/HAL/src/crt0.o
04020268 l       .text	00000000 alt_after_alt_main
00000000 l    df *ABS*	00000000 alt_irq_handler.c
00000000 l    df *ABS*	00000000 alt_instruction_exception_entry.c
00000000 l    df *ABS*	00000000 main.c
00000000 l    df *ABS*	00000000 mem_verify.c
00000000 l    df *ABS*	00000000 lib2-divmod.c
00000000 l    df *ABS*	00000000 lib2-mul.c
00000000 l    df *ABS*	00000000 memcpy.c
00000000 l    df *ABS*	00000000 printf.c
00000000 l    df *ABS*	00000000 putchar.c
00000000 l    df *ABS*	00000000 puts.c
00000000 l    df *ABS*	00000000 rand.c
00000000 l    df *ABS*	00000000 strlen.c
00000000 l    df *ABS*	00000000 vfprintf.c
00000192 l     O .rodata	00000010 zeroes.4404
04023408 l     F .text	000000bc __sbprintf
000001a2 l     O .rodata	00000010 blanks.4403
00000000 l    df *ABS*	00000000 wsetup.c
00000000 l    df *ABS*	00000000 dtoa.c
04023618 l     F .text	00000228 quorem
00000000 l    df *ABS*	00000000 fflush.c
00000000 l    df *ABS*	00000000 findfp.c
04025170 l     F .text	00000008 __fp_unlock
04025184 l     F .text	0000019c __sinit.part.1
04025320 l     F .text	00000008 __fp_lock
00000000 l    df *ABS*	00000000 mallocr.c
00000000 l    df *ABS*	00000000 fvwrite.c
00000000 l    df *ABS*	00000000 fwalk.c
00000000 l    df *ABS*	00000000 impure.c
00000444 l     O .rwdata	00000424 impure_data
00000000 l    df *ABS*	00000000 locale.c
00000888 l     O .rwdata	00000020 lc_ctype_charset
00000868 l     O .rwdata	00000020 lc_message_charset
000008a8 l     O .rwdata	00000038 lconv
00000000 l    df *ABS*	00000000 makebuf.c
00000000 l    df *ABS*	00000000 mallocr.c
00000000 l    df *ABS*	00000000 memchr.c
00000000 l    df *ABS*	00000000 memmove.c
00000000 l    df *ABS*	00000000 memset.c
00000000 l    df *ABS*	00000000 mprec.c
000001d4 l     O .rodata	0000000c p05.2768
00000000 l    df *ABS*	00000000 putc.c
00000000 l    df *ABS*	00000000 mallocr.c
00000000 l    df *ABS*	00000000 s_fpclassify.c
00000000 l    df *ABS*	00000000 sbrkr.c
00000000 l    df *ABS*	00000000 stdio.c
00000000 l    df *ABS*	00000000 strcmp.c
00000000 l    df *ABS*	00000000 vfprintf.c
04028814 l     F .text	000000fc __sprint_r.part.0
000002f8 l     O .rodata	00000010 zeroes.4349
04029e50 l     F .text	000000bc __sbprintf
00000308 l     O .rodata	00000010 blanks.4348
00000000 l    df *ABS*	00000000 wbuf.c
00000000 l    df *ABS*	00000000 writer.c
00000000 l    df *ABS*	00000000 closer.c
00000000 l    df *ABS*	00000000 mallocr.c
00000000 l    df *ABS*	00000000 fclose.c
00000000 l    df *ABS*	00000000 fputwc.c
00000000 l    df *ABS*	00000000 fstatr.c
00000000 l    df *ABS*	00000000 int_errno.c
00000000 l    df *ABS*	00000000 isattyr.c
00000000 l    df *ABS*	00000000 lseekr.c
00000000 l    df *ABS*	00000000 readr.c
00000000 l    df *ABS*	00000000 wcrtomb.c
00000000 l    df *ABS*	00000000 wctomb_r.c
00000000 l    df *ABS*	00000000 libgcc2.c
00000000 l    df *ABS*	00000000 libgcc2.c
00000000 l    df *ABS*	00000000 libgcc2.c
00000000 l    df *ABS*	00000000 adddf3.c
00000000 l    df *ABS*	00000000 divdf3.c
00000000 l    df *ABS*	00000000 eqdf2.c
00000000 l    df *ABS*	00000000 gedf2.c
00000000 l    df *ABS*	00000000 ledf2.c
00000000 l    df *ABS*	00000000 muldf3.c
00000000 l    df *ABS*	00000000 subdf3.c
00000000 l    df *ABS*	00000000 fixdfsi.c
00000000 l    df *ABS*	00000000 floatsidf.c
00000000 l    df *ABS*	00000000 floatunsidf.c
00000000 l    df *ABS*	00000000 libgcc2.c
00000000 l    df *ABS*	00000000 libgcc2.c
00000000 l    df *ABS*	00000000 alt_close.c
0402ddc8 l     F .text	0000003c alt_get_errno
00000000 l    df *ABS*	00000000 alt_dcache_flush_all.c
00000000 l    df *ABS*	00000000 alt_dev.c
0402defc l     F .text	0000002c alt_dev_null_write
00000000 l    df *ABS*	00000000 alt_errno.c
00000000 l    df *ABS*	00000000 alt_fstat.c
0402df28 l     F .text	0000003c alt_get_errno
00000000 l    df *ABS*	00000000 alt_isatty.c
0402e01c l     F .text	0000003c alt_get_errno
00000000 l    df *ABS*	00000000 alt_load.c
0402e104 l     F .text	00000068 alt_load_section
00000000 l    df *ABS*	00000000 alt_lseek.c
0402e1f0 l     F .text	0000003c alt_get_errno
00000000 l    df *ABS*	00000000 alt_main.c
00000000 l    df *ABS*	00000000 alt_malloc_lock.c
00000000 l    df *ABS*	00000000 alt_read.c
0402e3cc l     F .text	0000003c alt_get_errno
00000000 l    df *ABS*	00000000 alt_release_fd.c
00000000 l    df *ABS*	00000000 alt_sbrk.c
00001f20 l     O .rwdata	00000004 heap_end
00000000 l    df *ABS*	00000000 alt_tick.c
00000000 l    df *ABS*	00000000 alt_usleep.c
00000000 l    df *ABS*	00000000 alt_write.c
0402e814 l     F .text	0000003c alt_get_errno
00000000 l    df *ABS*	00000000 alt_sys_init.c
0402e950 l     F .text	00000034 alt_dev_reg
00000e90 l     O .rwdata	00001060 jtag_uart
00000000 l    df *ABS*	00000000 altera_avalon_jtag_uart_fd.c
00000000 l    df *ABS*	00000000 altera_avalon_jtag_uart_init.c
0402ec44 l     F .text	0000020c altera_avalon_jtag_uart_irq
0402ee50 l     F .text	000000a0 altera_avalon_jtag_uart_timeout
00000000 l    df *ABS*	00000000 altera_avalon_jtag_uart_ioctl.c
00000000 l    df *ABS*	00000000 altera_avalon_jtag_uart_read.c
00000000 l    df *ABS*	00000000 altera_avalon_jtag_uart_write.c
00000000 l    df *ABS*	00000000 altera_avalon_timer_sc.c
0402f488 l     F .text	00000078 alt_avalon_timer_sc_irq
00000000 l    df *ABS*	00000000 alt_alarm_start.c
00000000 l    df *ABS*	00000000 alt_busy_sleep.c
00000000 l    df *ABS*	00000000 alt_dev_llist_insert.c
0402f800 l     F .text	0000003c alt_get_errno
00000000 l    df *ABS*	00000000 alt_do_ctors.c
00000000 l    df *ABS*	00000000 alt_do_dtors.c
00000000 l    df *ABS*	00000000 alt_icache_flush_all.c
00000000 l    df *ABS*	00000000 alt_iic.c
00000000 l    df *ABS*	00000000 alt_iic_isr_register.c
00000000 l    df *ABS*	00000000 alt_io_redirect.c
0402fc60 l     F .text	000000e4 alt_open_fd
00000000 l    df *ABS*	00000000 alt_irq_vars.c
00000000 l    df *ABS*	00000000 alt_open.c
0402fdc0 l     F .text	0000003c alt_get_errno
0402fdfc l     F .text	000000ec alt_file_locked
00000000 l    df *ABS*	00000000 altera_nios2_gen2_irq.c
00000000 l    df *ABS*	00000000 alt_find_dev.c
00000000 l    df *ABS*	00000000 alt_find_file.c
00000000 l    df *ABS*	00000000 alt_get_fd.c
00000000 l    df *ABS*	00000000 atexit.c
00000000 l    df *ABS*	00000000 exit.c
00000000 l    df *ABS*	00000000 memcmp.c
00000000 l    df *ABS*	00000000 __atexit.c
00000000 l    df *ABS*	00000000 __call_atexit.c
00000000 l    df *ABS*	00000000 alt_exit.c
00001f64 g     O .bss	00000004 alt_instruction_exception_handler
04020f10 g     F .text	00000018 putchar
04027cf0 g     F .text	00000074 _mprec_log10
04027ddc g     F .text	0000008c __any_on
0402a55c g     F .text	00000054 _isatty_r
000001e0 g     O .rodata	00000028 __mprec_tinytens
0402e308 g     F .text	0000007c alt_main
04020f28 g     F .text	000000c0 _puts_r
00001f90 g     O .bss	00000100 alt_irq
0402a5b0 g     F .text	00000060 _lseek_r
04030b38 g       *ABS*	00000000 __flash_rwdata_start
0402c7a0 g     F .text	00000088 .hidden __eqdf2
00002090 g       *ABS*	00000000 __alt_heap_start
04020ecc g     F .text	0000003c printf
0402a670 g     F .text	0000009c _wcrtomb_r
040286d4 g     F .text	0000005c __sseek
040254d0 g     F .text	00000010 __sinit
04029f0c g     F .text	00000140 __swbuf_r
04025fa4 g     F .text	0000007c _setlocale_r
04025328 g     F .text	00000078 __sfmoreglue
0402e3a8 g     F .text	00000024 __malloc_unlock
04026b2c g     F .text	0000015c memmove
040254b8 g     F .text	00000018 _cleanup
04026db0 g     F .text	000000a8 _Balloc
0402c828 g     F .text	000000dc .hidden __gtdf2
04030044 g     F .text	00000024 altera_nios2_gen2_irq_init
04020000 g     F .entry	0000000c __reset
04020020 g       *ABS*	00000000 __flash_exceptions_start
0402a500 g     F .text	0000005c _fstat_r
00001f48 g     O .bss	00000004 errno
04028650 g     F .text	00000008 __seofread
00001f50 g     O .bss	00000004 alt_argv
00009ef0 g       *ABS*	00000000 _gp
0402e7e4 g     F .text	00000030 usleep
00000d10 g     O .rwdata	00000180 alt_fd_list
04020f08 g     F .text	00000008 _putchar_r
04030068 g     F .text	00000090 alt_find_dev
04020d54 g     F .text	00000148 memcpy
04020420 g     F .text	00000518 TMEM_Verify
04025178 g     F .text	0000000c _cleanup_r
0402dbe0 g     F .text	000000dc .hidden __floatsidf
0402fd44 g     F .text	0000007c alt_io_redirect
0402c904 g     F .text	000000f4 .hidden __ltdf2
040306f4 g       *ABS*	00000000 __DTOR_END__
04020fe8 g     F .text	00000014 puts
040302c4 g     F .text	0000009c alt_exception_cause_generated_bad_addr
04028534 g     F .text	00000074 __fpclassifyd
04027c4c g     F .text	000000a4 __ratio
04029e34 g     F .text	0000001c __vfiprintf_internal
0402f048 g     F .text	0000021c altera_avalon_jtag_uart_read
04020e9c g     F .text	00000030 _printf_r
04020c70 g     F .text	00000064 .hidden __udivsi3
0402e058 g     F .text	000000ac isatty
00000230 g     O .rodata	000000c8 __mprec_tens
04026020 g     F .text	0000000c __locale_charset
00001f44 g     O .bss	00000004 __malloc_top_pad
00001ef8 g     O .rwdata	00000004 __mb_cur_max
04026050 g     F .text	0000000c _localeconv_r
040271e4 g     F .text	0000003c __i2b
04025954 g     F .text	000004c8 __sfvwrite_r
040285a8 g     F .text	00000054 _sbrk_r
0402a610 g     F .text	00000060 _read_r
00001f18 g     O .rwdata	00000004 alt_max_fd
0402a1f4 g     F .text	000000f0 _fclose_r
04025140 g     F .text	00000030 fflush
00001f40 g     O .bss	00000004 __malloc_max_sbrked_mem
0402b524 g     F .text	000008ac .hidden __adddf3
040279f4 g     F .text	0000010c __b2d
0402af60 g     F .text	000005c4 .hidden __umoddi3
0402e22c g     F .text	000000dc lseek
00001ef0 g     O .rwdata	00000004 _global_impure_ptr
04027fd0 g     F .text	00000564 _realloc_r
00002090 g       *ABS*	00000000 __bss_end
0402fb70 g     F .text	000000f0 alt_iic_isr_register
0402e6dc g     F .text	00000108 alt_tick
0402a964 g     F .text	000005fc .hidden __udivdi3
0402a45c g     F .text	00000024 _fputwc_r
00000208 g     O .rodata	00000028 __mprec_bigtens
04026fc8 g     F .text	00000104 __s2b
0402dcbc g     F .text	000000a8 .hidden __floatunsidf
04027734 g     F .text	00000060 __mcmp
040254f0 g     F .text	00000018 __fp_lock_all
0402fb24 g     F .text	0000004c alt_ic_irq_enabled
0402e640 g     F .text	0000009c alt_alarm_stop
00001f60 g     O .bss	00000004 alt_irq_active
040200fc g     F .exceptions	000000d4 alt_irq_handler
00000ce8 g     O .rwdata	00000028 alt_dev_null
0402dedc g     F .text	00000020 alt_dcache_flush_all
040270cc g     F .text	00000068 __hi0bits
0402db60 g     F .text	00000080 .hidden __fixdfsi
00001f30 g       *ABS*	00000000 __ram_rwdata_end
00001f10 g     O .rwdata	00000008 alt_dev_list
0402e850 g     F .text	00000100 write
04027e68 g     F .text	000000a0 _putc_r
00000444 g       *ABS*	00000000 __ram_rodata_end
0402df64 g     F .text	000000b8 fstat
0402c904 g     F .text	000000f4 .hidden __ledf2
040274ac g     F .text	00000140 __pow5mult
04028928 g     F .text	0000150c ___vfiprintf_internal_r
00001f38 g     O .bss	00000004 __nlocale_changed
04020cd4 g     F .text	00000058 .hidden __umodsi3
00002090 g       *ABS*	00000000 end
0402eb84 g     F .text	000000c0 altera_avalon_jtag_uart_init
040201d0 g     F .exceptions	00000060 alt_instruction_exception_entry
040306f4 g       *ABS*	00000000 __CTOR_LIST__
04000000 g       *ABS*	00000000 __alt_stack_pointer
0402f500 g     F .text	0000007c alt_avalon_timer_sc_init
0402dd64 g     F .text	00000064 .hidden __clzsi2
0402f264 g     F .text	00000224 altera_avalon_jtag_uart_write
040254e0 g     F .text	00000004 __sfp_lock_acquire
04026a48 g     F .text	000000e4 memchr
04021110 g     F .text	000022dc ___vfprintf_internal_r
04025644 g     F .text	00000310 _free_r
0402602c g     F .text	00000010 __locale_mb_cur_max
04030540 g     F .text	00000180 __call_exitprocs
00001f34 g     O .bss	00000004 __mlocale_changed
00001efc g     O .rwdata	00000004 __malloc_sbrk_base
04020230 g     F .text	0000003c _start
00001f58 g     O .bss	00000004 _alt_tick_rate
04021014 g     F .text	00000064 rand
040275ec g     F .text	00000148 __lshift
00001f5c g     O .bss	00000004 _alt_nticks
0402e408 g     F .text	00000104 read
0402e9bc g     F .text	00000064 alt_sys_init
04030428 g     F .text	00000118 __register_exitproc
04027220 g     F .text	0000028c __multiply
0402eef0 g     F .text	00000068 altera_avalon_jtag_uart_close
04020d2c g     F .text	00000028 .hidden __mulsi3
00000444 g       *ABS*	00000000 __ram_rwdata_start
00000000 g       *ABS*	00000000 __ram_rodata_start
00001f68 g     O .bss	00000028 __malloc_current_mallinfo
04027b00 g     F .text	0000014c __d2b
0402ea20 g     F .text	00000060 altera_avalon_jtag_uart_read_fd
04030200 g     F .text	000000c4 alt_get_fd
0402f6a8 g     F .text	00000158 alt_busy_sleep
0402a0c4 g     F .text	00000054 _close_r
040303ac g     F .text	0000007c memcmp
0402eae0 g     F .text	00000050 altera_avalon_jtag_uart_close_fd
00002090 g       *ABS*	00000000 __alt_stack_base
0402eb30 g     F .text	00000054 altera_avalon_jtag_uart_ioctl_fd
040234c4 g     F .text	00000154 __swsetup_r
0402bdd0 g     F .text	000009d0 .hidden __divdf3
040253a0 g     F .text	00000118 __sfp
04027d64 g     F .text	00000078 __copybits
000008e0 g     O .rwdata	00000408 __malloc_av_
040254ec g     F .text	00000004 __sinit_lock_release
0402c9f8 g     F .text	0000086c .hidden __muldf3
040285fc g     F .text	00000054 __sread
040300f8 g     F .text	00000108 alt_find_file
0402f83c g     F .text	000000a4 alt_dev_llist_insert
0402e384 g     F .text	00000024 __malloc_lock
0402e590 g     F .text	000000b0 sbrk
040250e4 g     F .text	0000005c _fflush_r
0402a118 g     F .text	000000dc _calloc_r
00001f30 g       *ABS*	00000000 __bss_start
04026c88 g     F .text	00000128 memset
0402026c g     F .text	000001b4 main
00001f54 g     O .bss	00000004 alt_envp
00001f3c g     O .bss	00000004 __malloc_max_total_mem
0402ea80 g     F .text	00000060 altera_avalon_jtag_uart_write_fd
0402a04c g     F .text	00000018 __swbuf
04020ffc g     F .text	00000018 srand
04028730 g     F .text	00000008 __sclose
04000000 g       *ABS*	00000000 __alt_heap_limit
0402a2e4 g     F .text	00000014 fclose
04023840 g     F .text	00001688 _dtoa_r
0402623c g     F .text	0000080c _malloc_r
0402a7cc g     F .text	00000030 __ascii_wctomb
00001f1c g     O .rwdata	00000004 alt_errno
04025e1c g     F .text	000000c4 _fwalk
04027f08 g     F .text	000000c8 putc
04020b78 g     F .text	00000084 .hidden __divsi3
04025520 g     F .text	00000124 _malloc_trim_r
040306f4 g       *ABS*	00000000 __CTOR_END__
04028738 g     F .text	000000dc strcmp
040306f4 g       *ABS*	00000000 __flash_rodata_start
040306f4 g       *ABS*	00000000 __DTOR_LIST__
0402c7a0 g     F .text	00000088 .hidden __nedf2
0402e984 g     F .text	00000038 alt_irq_init
0402e50c g     F .text	00000084 alt_release_fd
00000318 g     O .rodata	00000100 .hidden __clz_tab
00001f30 g     O .bss	00000004 _PathLocale
04030360 g     F .text	00000014 atexit
0402a064 g     F .text	00000060 _write_r
0402605c g     F .text	00000018 setlocale
00001ef4 g     O .rwdata	00000004 _impure_ptr
00001f4c g     O .bss	00000004 alt_argc
04024ec8 g     F .text	0000021c __sflush_r
0402f940 g     F .text	00000060 _do_dtors
04026048 g     F .text	00000008 __locale_cjk_lang
04020020 g       .exceptions	00000000 alt_irq_entry
04027990 g     F .text	00000064 __ulp
04025508 g     F .text	00000018 __fp_unlock_all
00001f08 g     O .rwdata	00000008 alt_fs_list
04020020 g       *ABS*	00000000 __ram_exceptions_start
04026074 g     F .text	0000000c localeconv
04020000 g       *ABS*	00000000 __alt_mem_onchip_memory2
0402f9c0 g     F .text	00000050 alt_ic_isr_register
00001f30 g       *ABS*	00000000 _edata
00002090 g       *ABS*	00000000 _end
0402a2f8 g     F .text	00000164 __fputwc
04020230 g       *ABS*	00000000 __ram_exceptions_end
0402ef58 g     F .text	000000f0 altera_avalon_jtag_uart_ioctl
0402fa98 g     F .text	0000008c alt_ic_irq_disable
04028658 g     F .text	0000007c __swrite
00001f00 g     O .rwdata	00000004 __malloc_trim_threshold
0402603c g     F .text	0000000c __locale_msgcharset
04030374 g     F .text	00000038 exit
04025ee0 g     F .text	000000c4 _fwalk_reent
04027794 g     F .text	000001fc __mdiff
04020bfc g     F .text	00000074 .hidden __modsi3
04020938 g     F .text	00000240 TMEM_QuickVerify
04000000 g       *ABS*	00000000 __alt_data_end
04020020 g     F .exceptions	00000000 alt_exception
040254e4 g     F .text	00000004 __sfp_lock_release
00000000 g       *ABS*	00000000 __alt_mem_sdram
040306c0 g     F .text	00000034 _exit
0402f57c g     F .text	0000012c alt_alarm_start
0402a858 g     F .text	0000010c .hidden __muldi3
04026080 g     F .text	000001bc __smakebuf_r
04021078 g     F .text	00000098 strlen
0402fee8 g     F .text	0000015c open
0402c828 g     F .text	000000dc .hidden __gedf2
00001f04 g     O .rwdata	00000004 __wctomb
04028910 g     F .text	00000018 __sprint_r
0402f9a0 g     F .text	00000020 alt_icache_flush_all
00001f2c g     O .rwdata	00000004 alt_priority_mask
0402fa10 g     F .text	00000088 alt_ic_irq_enable
040233ec g     F .text	0000001c __vfprintf_internal
0402a7fc g     F .text	0000005c _wctomb_r
0402d264 g     F .text	000008fc .hidden __subdf3
04027134 g     F .text	000000b0 __lo0bits
00001f24 g     O .rwdata	00000008 alt_alarm_list
0402f8e0 g     F .text	00000060 _do_ctors
0402a70c g     F .text	000000c0 wcrtomb
0402de04 g     F .text	000000d8 close
0402e16c g     F .text	00000084 alt_load
0402a480 g     F .text	00000080 fputwc
040254e8 g     F .text	00000004 __sinit_lock_acquire
04026e80 g     F .text	00000148 __multadd
04026e58 g     F .text	00000028 _Bfree



Disassembly of section .entry:

04020000 <__reset>:
 * Jump to the _start entry point in the .text section if reset code
 * is allowed or if optimizing for RTL simulation.
 */
#if defined(ALT_ALLOW_CODE_AT_RESET) || defined(ALT_SIM_OPTIMIZE)
    /* Jump to the _start entry point in the .text section. */
    movhi r1, %hi(_start)
 4020000:	004100b4 	movhi	at,1026
    ori r1, r1, %lo(_start)
 4020004:	08408c14 	ori	at,at,560
    jmp r1
 4020008:	0800683a 	jmp	at
	...

Disassembly of section .exceptions:

04020020 <alt_exception>:

#else /* ALT_EXCEPTION_STACK disabled */
        /* 
         * Reserve space on normal stack for registers about to be pushed.
         */
        addi  sp, sp, -76
 4020020:	deffed04 	addi	sp,sp,-76
         * documentation for details).
         *
         * Leave a gap in the stack frame at 4(sp) for the muldiv handler to
         * store zero into.
         */
        stw   ra,  0(sp)
 4020024:	dfc00015 	stw	ra,0(sp)
        stw   r1,   8(sp)
 4020028:	d8400215 	stw	at,8(sp)
        stw   r2,  12(sp)
 402002c:	d8800315 	stw	r2,12(sp)
        stw   r3,  16(sp)
 4020030:	d8c00415 	stw	r3,16(sp)
        stw   r4,  20(sp)
 4020034:	d9000515 	stw	r4,20(sp)
        stw   r5,  24(sp)
 4020038:	d9400615 	stw	r5,24(sp)
        stw   r6,  28(sp)
 402003c:	d9800715 	stw	r6,28(sp)
        stw   r7,  32(sp)
 4020040:	d9c00815 	stw	r7,32(sp)
        rdctl r5, estatus   /* Read early to avoid usage stall */
 4020044:	000b307a 	rdctl	r5,estatus
        stw   r8,  36(sp)
 4020048:	da000915 	stw	r8,36(sp)
        stw   r9,  40(sp)
 402004c:	da400a15 	stw	r9,40(sp)
        stw   r10, 44(sp)
 4020050:	da800b15 	stw	r10,44(sp)
        stw   r11, 48(sp)
 4020054:	dac00c15 	stw	r11,48(sp)
        stw   r12, 52(sp)
 4020058:	db000d15 	stw	r12,52(sp)
        stw   r13, 56(sp)
 402005c:	db400e15 	stw	r13,56(sp)
        stw   r14, 60(sp)
 4020060:	db800f15 	stw	r14,60(sp)
        stw   r15, 64(sp)
 4020064:	dbc01015 	stw	r15,64(sp)
        /*
         * ea-4 contains the address of the instruction being executed
         * when the exception occured. For interrupt exceptions, we will
         * will be re-issue the isntruction. Store it in 72(sp)
         */
        stw   r5,  68(sp)  /* estatus */
 4020068:	d9401115 	stw	r5,68(sp)
        addi  r15, ea, -4  /* instruction that caused exception */
 402006c:	ebffff04 	addi	r15,ea,-4
        stw   r15,  72(sp)
 4020070:	dbc01215 	stw	r15,72(sp)
#else
        /*
         * Test to see if the exception was a software exception or caused 
         * by an external interrupt, and vector accordingly.
         */
        rdctl r4, ipending
 4020074:	0009313a 	rdctl	r4,ipending
        andi  r2, r5, 1
 4020078:	2880004c 	andi	r2,r5,1
        beq   r2, zero, .Lnot_irq
 402007c:	10000326 	beq	r2,zero,402008c <alt_exception+0x6c>
        beq   r4, zero, .Lnot_irq
 4020080:	20000226 	beq	r4,zero,402008c <alt_exception+0x6c>
        /*
         * Now that all necessary registers have been preserved, call 
         * alt_irq_handler() to process the interrupts.
         */

        call alt_irq_handler
 4020084:	40200fc0 	call	40200fc <alt_irq_handler>

        .section .exceptions.irqreturn, "xa"

        br    .Lexception_exit
 4020088:	00000706 	br	40200a8 <alt_exception+0x88>
         * upon completion, so we write ea (address of instruction *after*
         * the one where the exception occured) into 72(sp). The actual
         * instruction that caused the exception is written in r2, which these
         * handlers will utilize.
         */
        stw ea, 72(sp) /* EA is PC+4 so will skip over instruction causing exception */
 402008c:	df401215 	stw	ea,72(sp)
.Lunknown_16bit:
        addi.n r4, r4, 2 /* Need PC+2 to skip over instruction causing exception */
        stw r4, 72(sp)

#else /* CDX is not Enabled and all instructions are 32bits */
        ldw r2, -4(ea) /* Instruction value that caused exception */
 4020090:	e8bfff17 	ldw	r2,-4(ea)
         * debugger is present) or go into an infinite loop since the
         * handling behavior is undefined; in that case we will not return here.
         */

        /* Load exception-causing address as first argument (r4) */
        addi   r4, ea, -4
 4020094:	e93fff04 	addi	r4,ea,-4

        /* Call the instruction-exception entry */
        call   alt_instruction_exception_entry
 4020098:	40201d00 	call	40201d0 <alt_instruction_exception_entry>
         * instruction
         *
         * Return code was 0: Skip. The instruction after the exception is
         * already stored in 72(sp).
         */
        bne   r2, r0, .Lexception_exit
 402009c:	1000021e 	bne	r2,zero,40200a8 <alt_exception+0x88>

        /*
         * Otherwise, modify 72(sp) to re-issue the instruction that caused the
         * exception.
         */
        addi  r15, ea, -4  /* instruction that caused exception */
 40200a0:	ebffff04 	addi	r15,ea,-4
        stw   r15,  72(sp)
 40200a4:	dbc01215 	stw	r15,72(sp)
        /* 
         * Restore the saved registers, so that all general purpose registers 
         * have been restored to their state at the time the interrupt occured.
         */

        ldw   r5,  68(sp)
 40200a8:	d9401117 	ldw	r5,68(sp)
        ldw   ea,  72(sp)  /* This becomes the PC once eret is executed */
 40200ac:	df401217 	ldw	ea,72(sp)
        ldw   ra,   0(sp)
 40200b0:	dfc00017 	ldw	ra,0(sp)

        wrctl estatus, r5
 40200b4:	2801707a 	wrctl	estatus,r5

        ldw   r1,   8(sp)
 40200b8:	d8400217 	ldw	at,8(sp)
        ldw   r2,  12(sp)
 40200bc:	d8800317 	ldw	r2,12(sp)
        ldw   r3,  16(sp)
 40200c0:	d8c00417 	ldw	r3,16(sp)
        ldw   r4,  20(sp)
 40200c4:	d9000517 	ldw	r4,20(sp)
        ldw   r5,  24(sp)
 40200c8:	d9400617 	ldw	r5,24(sp)
        ldw   r6,  28(sp)
 40200cc:	d9800717 	ldw	r6,28(sp)
        ldw   r7,  32(sp)
 40200d0:	d9c00817 	ldw	r7,32(sp)

#if defined(ALT_EXCEPTION_STACK) && defined(ALT_STACK_CHECK)
        ldw   et, %gprel(alt_exception_old_stack_limit)(gp)
#endif

        ldw   r8,  36(sp)
 40200d4:	da000917 	ldw	r8,36(sp)
        ldw   r9,  40(sp)
 40200d8:	da400a17 	ldw	r9,40(sp)
        ldw   r10, 44(sp)
 40200dc:	da800b17 	ldw	r10,44(sp)
        ldw   r11, 48(sp)
 40200e0:	dac00c17 	ldw	r11,48(sp)
        ldw   r12, 52(sp)
 40200e4:	db000d17 	ldw	r12,52(sp)
        ldw   r13, 56(sp)
 40200e8:	db400e17 	ldw	r13,56(sp)
        ldw   r14, 60(sp)
 40200ec:	db800f17 	ldw	r14,60(sp)
        ldw   r15, 64(sp)
 40200f0:	dbc01017 	ldw	r15,64(sp)
        stw   et, %gprel(alt_stack_limit_value)(gp)
        stw   zero, %gprel(alt_exception_old_stack_limit)(gp)
#endif /* ALT_STACK_CHECK */
        ldw   sp,  76(sp)
#else /* ALT_EXCEPTION_STACK disabled */
        addi  sp, sp, 76
 40200f4:	dec01304 	addi	sp,sp,76

        /*
         * Return to the interrupted instruction.
         */

        eret
 40200f8:	ef80083a 	eret

040200fc <alt_irq_handler>:
 * instruction is present if the macro ALT_CI_INTERRUPT_VECTOR defined.
 */

void alt_irq_handler (void) __attribute__ ((section (".exceptions")));
void alt_irq_handler (void)
{
 40200fc:	defff904 	addi	sp,sp,-28
 4020100:	dfc00615 	stw	ra,24(sp)
 4020104:	df000515 	stw	fp,20(sp)
 4020108:	df000504 	addi	fp,sp,20
  
  /*
   * Notify the operating system that we are at interrupt level.
   */ 
  
  ALT_OS_INT_ENTER();
 402010c:	0001883a 	nop
#ifndef NIOS2_EIC_PRESENT
static ALT_INLINE alt_u32 ALT_ALWAYS_INLINE alt_irq_pending (void)
{
  alt_u32 active;

  NIOS2_READ_IPENDING (active);
 4020110:	0005313a 	rdctl	r2,ipending
 4020114:	e0bffe15 	stw	r2,-8(fp)

  return active;
 4020118:	e0bffe17 	ldw	r2,-8(fp)
   * Consider the case where the high priority interupt is asserted during
   * the interrupt entry sequence for a lower priority interrupt to see why
   * this is the case.
   */

  active = alt_irq_pending ();
 402011c:	e0bffb15 	stw	r2,-20(fp)

  do
  {
    i = 0;
 4020120:	e03ffd15 	stw	zero,-12(fp)
    mask = 1;
 4020124:	00800044 	movi	r2,1
 4020128:	e0bffc15 	stw	r2,-16(fp)
     * called to clear the interrupt condition.
     */

    do
    {
      if (active & mask)
 402012c:	e0fffb17 	ldw	r3,-20(fp)
 4020130:	e0bffc17 	ldw	r2,-16(fp)
 4020134:	1884703a 	and	r2,r3,r2
 4020138:	10001426 	beq	r2,zero,402018c <alt_irq_handler+0x90>
      { 
#ifdef ALT_ENHANCED_INTERRUPT_API_PRESENT
        alt_irq[i].handler(alt_irq[i].context); 
 402013c:	00800034 	movhi	r2,0
 4020140:	1087e404 	addi	r2,r2,8080
 4020144:	e0fffd17 	ldw	r3,-12(fp)
 4020148:	180690fa 	slli	r3,r3,3
 402014c:	10c5883a 	add	r2,r2,r3
 4020150:	10c00017 	ldw	r3,0(r2)
 4020154:	00800034 	movhi	r2,0
 4020158:	1087e404 	addi	r2,r2,8080
 402015c:	e13ffd17 	ldw	r4,-12(fp)
 4020160:	200890fa 	slli	r4,r4,3
 4020164:	1105883a 	add	r2,r2,r4
 4020168:	10800104 	addi	r2,r2,4
 402016c:	10800017 	ldw	r2,0(r2)
 4020170:	1009883a 	mov	r4,r2
 4020174:	183ee83a 	callr	r3
#else
        alt_irq[i].handler(alt_irq[i].context, i); 
#endif
        break;
 4020178:	0001883a 	nop
#ifndef NIOS2_EIC_PRESENT
static ALT_INLINE alt_u32 ALT_ALWAYS_INLINE alt_irq_pending (void)
{
  alt_u32 active;

  NIOS2_READ_IPENDING (active);
 402017c:	0005313a 	rdctl	r2,ipending
 4020180:	e0bfff15 	stw	r2,-4(fp)

  return active;
 4020184:	e0bfff17 	ldw	r2,-4(fp)
 4020188:	00000706 	br	40201a8 <alt_irq_handler+0xac>
      }
      mask <<= 1;
 402018c:	e0bffc17 	ldw	r2,-16(fp)
 4020190:	1085883a 	add	r2,r2,r2
 4020194:	e0bffc15 	stw	r2,-16(fp)
      i++;
 4020198:	e0bffd17 	ldw	r2,-12(fp)
 402019c:	10800044 	addi	r2,r2,1
 40201a0:	e0bffd15 	stw	r2,-12(fp)

    } while (1);
 40201a4:	003fe106 	br	402012c <__flash_rwdata_start+0xfffef5f4>

    active = alt_irq_pending ();
 40201a8:	e0bffb15 	stw	r2,-20(fp)
    
  } while (active);
 40201ac:	e0bffb17 	ldw	r2,-20(fp)
 40201b0:	103fdb1e 	bne	r2,zero,4020120 <__flash_rwdata_start+0xfffef5e8>

  /*
   * Notify the operating system that interrupt processing is complete.
   */ 

  ALT_OS_INT_EXIT();
 40201b4:	0001883a 	nop
}
 40201b8:	0001883a 	nop
 40201bc:	e037883a 	mov	sp,fp
 40201c0:	dfc00117 	ldw	ra,4(sp)
 40201c4:	df000017 	ldw	fp,0(sp)
 40201c8:	dec00204 	addi	sp,sp,8
 40201cc:	f800283a 	ret

040201d0 <alt_instruction_exception_entry>:
 * that handler if it has been registered. Absent a handler, it will
 * break break or hang as discussed below.
 */
int 
alt_instruction_exception_entry (alt_u32 exception_pc)
{
 40201d0:	defffb04 	addi	sp,sp,-20
 40201d4:	dfc00415 	stw	ra,16(sp)
 40201d8:	df000315 	stw	fp,12(sp)
 40201dc:	df000304 	addi	fp,sp,12
 40201e0:	e13fff15 	stw	r4,-4(fp)
  cause = ( (cause & NIOS2_EXCEPTION_REG_CAUSE_MASK) >>
              NIOS2_EXCEPTION_REG_CAUSE_OFST );

  NIOS2_READ_BADADDR(badaddr);
#else
  cause = NIOS2_EXCEPTION_CAUSE_NOT_PRESENT;
 40201e4:	00bfffc4 	movi	r2,-1
 40201e8:	e0bffd15 	stw	r2,-12(fp)
  badaddr = 0;
 40201ec:	e03ffe15 	stw	zero,-8(fp)
#endif /* NIOS2_HAS_EXTRA_EXCEPTION_INFO */

  if(alt_instruction_exception_handler) {
 40201f0:	d0a01d17 	ldw	r2,-32652(gp)
 40201f4:	10000726 	beq	r2,zero,4020214 <alt_instruction_exception_entry+0x44>
     * Call handler. Its return value indicates whether the exception-causing
     * instruction should be re-issued. The code that called us,
     * alt_eceptions_entry.S, will look at this value and adjust the ea
     * register as necessary
     */
    return alt_instruction_exception_handler(cause, exception_pc, badaddr);
 40201f8:	d0a01d17 	ldw	r2,-32652(gp)
 40201fc:	e0fffd17 	ldw	r3,-12(fp)
 4020200:	e1bffe17 	ldw	r6,-8(fp)
 4020204:	e17fff17 	ldw	r5,-4(fp)
 4020208:	1809883a 	mov	r4,r3
 402020c:	103ee83a 	callr	r2
 4020210:	00000206 	br	402021c <alt_instruction_exception_entry+0x4c>
   *    (a peripheral which negates its interrupt output before its
   *    interrupt handler has been executed will cause spurious interrupts)
   */
  else {
#ifdef NIOS2_HAS_DEBUG_STUB
    NIOS2_BREAK();
 4020214:	003da03a 	break	0
      ;
#endif /* NIOS2_HAS_DEBUG_STUB */
  }

  /* We should not get here. Remove compiler warning. */
  return NIOS2_EXCEPTION_RETURN_REISSUE_INST;
 4020218:	0005883a 	mov	r2,zero
}
 402021c:	e037883a 	mov	sp,fp
 4020220:	dfc00117 	ldw	ra,4(sp)
 4020224:	df000017 	ldw	fp,0(sp)
 4020228:	dec00204 	addi	sp,sp,8
 402022c:	f800283a 	ret

Disassembly of section .text:

04020230 <_start>:

    /*
     * Now that the caches are initialized, set up the stack pointer and global pointer.
     * The values provided by the linker are assumed to be correctly aligned.
     */
    movhi sp, %hi(__alt_stack_pointer)
 4020230:	06c10034 	movhi	sp,1024
    ori sp, sp, %lo(__alt_stack_pointer)
 4020234:	dec00014 	ori	sp,sp,0
    movhi gp, %hi(_gp)
 4020238:	06800034 	movhi	gp,0
    ori gp, gp, %lo(_gp)
 402023c:	d6a7bc14 	ori	gp,gp,40688
 */
#ifndef ALT_SIM_OPTIMIZE
    /* Log that the BSS is about to be cleared. */
    ALT_LOG_PUTS(alt_log_msg_bss)

    movhi r2, %hi(__bss_start)
 4020240:	00800034 	movhi	r2,0
    ori r2, r2, %lo(__bss_start)
 4020244:	1087cc14 	ori	r2,r2,7984

    movhi r3, %hi(__bss_end)
 4020248:	00c00034 	movhi	r3,0
    ori r3, r3, %lo(__bss_end)
 402024c:	18c82414 	ori	r3,r3,8336

    beq r2, r3, 1f
 4020250:	10c00326 	beq	r2,r3,4020260 <_start+0x30>

0:
    stw zero, (r2)
 4020254:	10000015 	stw	zero,0(r2)
    addi r2, r2, 4
 4020258:	10800104 	addi	r2,r2,4
    bltu r2, r3, 0b
 402025c:	10fffd36 	bltu	r2,r3,4020254 <__flash_rwdata_start+0xfffef71c>
     * section aren't defined until alt_load() has been called).
     */
    mov   et, zero
#endif

    call alt_load
 4020260:	402e16c0 	call	402e16c <alt_load>

    /* Log that alt_main is about to be called. */
    ALT_LOG_PUTS(alt_log_msg_alt_main)

    /* Call the C entry point. It should never return. */
    call alt_main
 4020264:	402e3080 	call	402e308 <alt_main>

04020268 <alt_after_alt_main>:

    /* Wait in infinite loop in case alt_main does return. */
alt_after_alt_main:
    br alt_after_alt_main
 4020268:	003fff06 	br	4020268 <__flash_rwdata_start+0xfffef730>

0402026c <main>:
#include "mem_verify.h"
#include "system.h"
#include "alt_types.h"

int main()
{
 402026c:	defff404 	addi	sp,sp,-48
 4020270:	dfc00b15 	stw	ra,44(sp)
 4020274:	df000a15 	stw	fp,40(sp)
 4020278:	dc000915 	stw	r16,36(sp)
 402027c:	df000a04 	addi	fp,sp,40
	bool bPass, bLoop;
	int TestIndex ;
	alt_u32 InitValue = 0x01;
 4020280:	00800044 	movi	r2,1
 4020284:	e0bffa15 	stw	r2,-24(fp)
	bool bShowMessage = TRUE;
 4020288:	00800044 	movi	r2,1
 402028c:	e0bffb15 	stw	r2,-20(fp)
	alt_u32 TimeStart, TimeElapsed;
	alt_u8 Status,ButtonStatus;
	const alt_u8 ButtonMask = 0x03; // 2 button
 4020290:	008000c4 	movi	r2,3
 4020294:	e0bffc05 	stb	r2,-16(fp)

    printf("===== SDRAM Test! Size=%dMB (CPU Clock:%d) =====\r\n", SDRAM_SPAN/1024/1024, ALT_CPU_CPU_FREQ);
 4020298:	01817db4 	movhi	r6,1526
 402029c:	31b84004 	addi	r6,r6,-7936
 40202a0:	01401004 	movi	r5,64
 40202a4:	01000034 	movhi	r4,0
 40202a8:	21000004 	addi	r4,r4,0
 40202ac:	4020ecc0 	call	4020ecc <printf>

    while(1){
        printf("\n==========================================================\n");
 40202b0:	01000034 	movhi	r4,0
 40202b4:	21000d04 	addi	r4,r4,52
 40202b8:	4020fe80 	call	4020fe8 <puts>
        printf("Press any KEY to start test [KEY0 for continued test] \n");
 40202bc:	01000034 	movhi	r4,0
 40202c0:	21001c04 	addi	r4,r4,112
 40202c4:	4020fe80 	call	4020fe8 <puts>
        ButtonStatus = ButtonMask;
 40202c8:	e0bffc03 	ldbu	r2,-16(fp)
 40202cc:	e0bff905 	stb	r2,-28(fp)
        while((ButtonStatus & ButtonMask) == ButtonMask){
 40202d0:	00000406 	br	40202e4 <main+0x78>
        	ButtonStatus = IORD(KEY_BASE, 0);
 40202d4:	00810134 	movhi	r2,1028
 40202d8:	10840804 	addi	r2,r2,4128
 40202dc:	10800037 	ldwio	r2,0(r2)
 40202e0:	e0bff905 	stb	r2,-28(fp)

    while(1){
        printf("\n==========================================================\n");
        printf("Press any KEY to start test [KEY0 for continued test] \n");
        ButtonStatus = ButtonMask;
        while((ButtonStatus & ButtonMask) == ButtonMask){
 40202e4:	e0fff903 	ldbu	r3,-28(fp)
 40202e8:	e0bffc03 	ldbu	r2,-16(fp)
 40202ec:	1884703a 	and	r2,r3,r2
 40202f0:	10c03fcc 	andi	r3,r2,255
 40202f4:	e0bffc03 	ldbu	r2,-16(fp)
 40202f8:	18bff626 	beq	r3,r2,40202d4 <__flash_rwdata_start+0xfffef79c>
        	ButtonStatus = IORD(KEY_BASE, 0);
        }

        if ((ButtonStatus & 0x01) == 0x00){
 40202fc:	e0bff903 	ldbu	r2,-28(fp)
 4020300:	1080004c 	andi	r2,r2,1
 4020304:	1000031e 	bne	r2,zero,4020314 <main+0xa8>
            bLoop = TRUE;
 4020308:	00800044 	movi	r2,1
 402030c:	e0bff715 	stw	r2,-36(fp)
 4020310:	00000106 	br	4020318 <main+0xac>
        }else{
            bLoop = FALSE;
 4020314:	e03ff715 	stw	zero,-36(fp)
        }

		//
        bPass = TRUE;
 4020318:	00800044 	movi	r2,1
 402031c:	e0bff615 	stw	r2,-40(fp)
        TestIndex = 0;
 4020320:	e03ff815 	stw	zero,-32(fp)

        do{
        	TestIndex++;
 4020324:	e0bff817 	ldw	r2,-32(fp)
 4020328:	10800044 	addi	r2,r2,1
 402032c:	e0bff815 	stw	r2,-32(fp)
        	printf("=====> SDRAM Testing, Iteration: %d\n", TestIndex);
 4020330:	e17ff817 	ldw	r5,-32(fp)
 4020334:	01000034 	movhi	r4,0
 4020338:	21002a04 	addi	r4,r4,168
 402033c:	4020ecc0 	call	4020ecc <printf>
 * alt_nticks() returns the elapsed number of system clock ticks since reset.
 */

static ALT_INLINE alt_u32 ALT_ALWAYS_INLINE alt_nticks (void)
{
  return _alt_nticks;
 4020340:	d0a01b17 	ldw	r2,-32660(gp)
        	TimeStart = alt_nticks();
 4020344:	e0bffd15 	stw	r2,-12(fp)

        	if (bPass)
 4020348:	e0bff617 	ldw	r2,-40(fp)
 402034c:	10000626 	beq	r2,zero,4020368 <main+0xfc>
        		bPass = TMEM_Verify(SDRAM_BASE, SDRAM_SPAN, InitValue,  bShowMessage);
 4020350:	e1fffb17 	ldw	r7,-20(fp)
 4020354:	e1bffa17 	ldw	r6,-24(fp)
 4020358:	01410034 	movhi	r5,1024
 402035c:	0009883a 	mov	r4,zero
 4020360:	40204200 	call	4020420 <TMEM_Verify>
 4020364:	e0bff615 	stw	r2,-40(fp)
 4020368:	d0e01b17 	ldw	r3,-32660(gp)

        	TimeElapsed = alt_nticks() - TimeStart;
 402036c:	e0bffd17 	ldw	r2,-12(fp)
 4020370:	1885c83a 	sub	r2,r3,r2
 4020374:	e0bffe15 	stw	r2,-8(fp)
        	printf("SDRAM test:%s, %d seconds\r\n", bPass?"Pass":"NG", (int)(TimeElapsed/alt_ticks_per_second()));
 4020378:	e0bff617 	ldw	r2,-40(fp)
 402037c:	10000326 	beq	r2,zero,402038c <main+0x120>
 4020380:	04000034 	movhi	r16,0
 4020384:	84003404 	addi	r16,r16,208
 4020388:	00000206 	br	4020394 <main+0x128>
 402038c:	04000034 	movhi	r16,0
 4020390:	84003604 	addi	r16,r16,216
 * Obtain the system clock rate in ticks/s. 
 */

static ALT_INLINE alt_u32 ALT_ALWAYS_INLINE alt_ticks_per_second (void)
{
  return _alt_tick_rate;
 4020394:	d0a01a17 	ldw	r2,-32664(gp)
 4020398:	100b883a 	mov	r5,r2
 402039c:	e13ffe17 	ldw	r4,-8(fp)
 40203a0:	4020c700 	call	4020c70 <__udivsi3>
 40203a4:	100d883a 	mov	r6,r2
 40203a8:	800b883a 	mov	r5,r16
 40203ac:	01000034 	movhi	r4,0
 40203b0:	21003704 	addi	r4,r4,220
 40203b4:	4020ecc0 	call	4020ecc <printf>

            usleep(500*1000);
 40203b8:	01000234 	movhi	r4,8
 40203bc:	21284804 	addi	r4,r4,-24288
 40203c0:	402e7e40 	call	402e7e4 <usleep>
            if (bPass && bLoop){  // is abort loop?
 40203c4:	e0bff617 	ldw	r2,-40(fp)
 40203c8:	10000d26 	beq	r2,zero,4020400 <main+0x194>
 40203cc:	e0bff717 	ldw	r2,-36(fp)
 40203d0:	10000b26 	beq	r2,zero,4020400 <main+0x194>
            	ButtonStatus = IORD(KEY_BASE, 0);
 40203d4:	00810134 	movhi	r2,1028
 40203d8:	10840804 	addi	r2,r2,4128
 40203dc:	10800037 	ldwio	r2,0(r2)
 40203e0:	e0bff905 	stb	r2,-28(fp)
            	if ((ButtonStatus & ButtonMask) != ButtonMask)
 40203e4:	e0fff903 	ldbu	r3,-28(fp)
 40203e8:	e0bffc03 	ldbu	r2,-16(fp)
 40203ec:	1884703a 	and	r2,r3,r2
 40203f0:	10c03fcc 	andi	r3,r2,255
 40203f4:	e0bffc03 	ldbu	r2,-16(fp)
 40203f8:	18800126 	beq	r3,r2,4020400 <main+0x194>
            		bLoop = FALSE; // press any key to abort continued test
 40203fc:	e03ff715 	stw	zero,-36(fp)
            }
            usleep(600*1000);
 4020400:	01000274 	movhi	r4,9
 4020404:	2109f004 	addi	r4,r4,10176
 4020408:	402e7e40 	call	402e7e4 <usleep>
        }while(bLoop && bPass);
 402040c:	e0bff717 	ldw	r2,-36(fp)
 4020410:	103fa726 	beq	r2,zero,40202b0 <__flash_rwdata_start+0xfffef778>
 4020414:	e0bff617 	ldw	r2,-40(fp)
 4020418:	103fc21e 	bne	r2,zero,4020324 <__flash_rwdata_start+0xfffef7ec>
	} // while(1)
 402041c:	003fa406 	br	40202b0 <__flash_rwdata_start+0xfffef778>

04020420 <TMEM_Verify>:
#include "terasic_includes.h"
#include "mem_verify.h"



bool TMEM_Verify(alt_u32 BaseAddr, alt_u32 ByteLen, alt_u32 InitValue, bool bShowMessage){
 4020420:	def7e504 	addi	sp,sp,-8300
 4020424:	dfc81a15 	stw	ra,8296(sp)
 4020428:	df081915 	stw	fp,8292(sp)
 402042c:	df081904 	addi	fp,sp,8292
 4020430:	e13ffc15 	stw	r4,-16(fp)
 4020434:	e17ffd15 	stw	r5,-12(fp)
 4020438:	e1bffe15 	stw	r6,-8(fp)
 402043c:	e1ffff15 	stw	r7,-4(fp)
    bool bPass = TRUE;
 4020440:	00800044 	movi	r2,1
 4020444:	e0b7e715 	stw	r2,-8292(fp)
    alt_u32 szData[1025];
    alt_u32 szRead[1025];
    int i, nRemainedLen, nAccessLen;
    alt_u32 *pDes, *pSrc, nItemNum, nPos;

    int nProgressIndex=0;
 4020448:	e037ed15 	stw	zero,-8268(fp)
    alt_u32 szProgress[10];
    
    for(i=0;i<10;i++){
 402044c:	e037e815 	stw	zero,-8288(fp)
 4020450:	00001506 	br	40204a8 <TMEM_Verify+0x88>
        szProgress[i] = ByteLen/10*(i+1);     
 4020454:	e0bffd17 	ldw	r2,-12(fp)
 4020458:	01400284 	movi	r5,10
 402045c:	1009883a 	mov	r4,r2
 4020460:	4020c700 	call	4020c70 <__udivsi3>
 4020464:	1007883a 	mov	r3,r2
 4020468:	e0b7e817 	ldw	r2,-8288(fp)
 402046c:	10800044 	addi	r2,r2,1
 4020470:	100b883a 	mov	r5,r2
 4020474:	1809883a 	mov	r4,r3
 4020478:	4020d2c0 	call	4020d2c <__mulsi3>
 402047c:	1007883a 	mov	r3,r2
 4020480:	e0b7e817 	ldw	r2,-8288(fp)
 4020484:	1085883a 	add	r2,r2,r2
 4020488:	1085883a 	add	r2,r2,r2
 402048c:	e137e704 	addi	r4,fp,-8292
 4020490:	2085883a 	add	r2,r4,r2
 4020494:	10880b04 	addi	r2,r2,8236
 4020498:	10c00015 	stw	r3,0(r2)
    alt_u32 *pDes, *pSrc, nItemNum, nPos;

    int nProgressIndex=0;
    alt_u32 szProgress[10];
    
    for(i=0;i<10;i++){
 402049c:	e0b7e817 	ldw	r2,-8288(fp)
 40204a0:	10800044 	addi	r2,r2,1
 40204a4:	e0b7e815 	stw	r2,-8288(fp)
 40204a8:	e0b7e817 	ldw	r2,-8288(fp)
 40204ac:	10800290 	cmplti	r2,r2,10
 40204b0:	103fe81e 	bne	r2,zero,4020454 <__flash_rwdata_start+0xfffef91c>
        szProgress[i] = ByteLen/10*(i+1);     
    }
    
    
    
    nItemNum = sizeof(szData)/sizeof(szData[0]);
 40204b4:	00810044 	movi	r2,1025
 40204b8:	e0b7ee15 	stw	r2,-8264(fp)
    for(i=0;i<nItemNum;i++){
 40204bc:	e037e815 	stw	zero,-8288(fp)
 40204c0:	00002106 	br	4020548 <TMEM_Verify+0x128>
        if (i == 0)
 40204c4:	e0b7e817 	ldw	r2,-8288(fp)
 40204c8:	1000091e 	bne	r2,zero,40204f0 <TMEM_Verify+0xd0>
            szData[i] = InitValue;
 40204cc:	e0b7e817 	ldw	r2,-8288(fp)
 40204d0:	1085883a 	add	r2,r2,r2
 40204d4:	1085883a 	add	r2,r2,r2
 40204d8:	e0f7e704 	addi	r3,fp,-8292
 40204dc:	1885883a 	add	r2,r3,r2
 40204e0:	10800904 	addi	r2,r2,36
 40204e4:	e0fffe17 	ldw	r3,-8(fp)
 40204e8:	10c00015 	stw	r3,0(r2)
 40204ec:	00001306 	br	402053c <TMEM_Verify+0x11c>
        else     
            szData[i] = szData[i-1] * 13;
 40204f0:	e0b7e817 	ldw	r2,-8288(fp)
 40204f4:	10bfffc4 	addi	r2,r2,-1
 40204f8:	1085883a 	add	r2,r2,r2
 40204fc:	1085883a 	add	r2,r2,r2
 4020500:	e137e704 	addi	r4,fp,-8292
 4020504:	2085883a 	add	r2,r4,r2
 4020508:	10800904 	addi	r2,r2,36
 402050c:	10800017 	ldw	r2,0(r2)
 4020510:	01400344 	movi	r5,13
 4020514:	1009883a 	mov	r4,r2
 4020518:	4020d2c0 	call	4020d2c <__mulsi3>
 402051c:	1007883a 	mov	r3,r2
 4020520:	e0b7e817 	ldw	r2,-8288(fp)
 4020524:	1085883a 	add	r2,r2,r2
 4020528:	1085883a 	add	r2,r2,r2
 402052c:	e137e704 	addi	r4,fp,-8292
 4020530:	2085883a 	add	r2,r4,r2
 4020534:	10800904 	addi	r2,r2,36
 4020538:	10c00015 	stw	r3,0(r2)
    }
    
    
    
    nItemNum = sizeof(szData)/sizeof(szData[0]);
    for(i=0;i<nItemNum;i++){
 402053c:	e0b7e817 	ldw	r2,-8288(fp)
 4020540:	10800044 	addi	r2,r2,1
 4020544:	e0b7e815 	stw	r2,-8288(fp)
 4020548:	e0f7e817 	ldw	r3,-8288(fp)
 402054c:	e0b7ee17 	ldw	r2,-8264(fp)
 4020550:	18bfdc36 	bltu	r3,r2,40204c4 <__flash_rwdata_start+0xfffef98c>
        if (i == 0)
            szData[i] = InitValue;
        else     
            szData[i] = szData[i-1] * 13;
    }
    szData[nItemNum-1] = 0xAAAAAAAA;
 4020554:	e0b7ee17 	ldw	r2,-8264(fp)
 4020558:	10bfffc4 	addi	r2,r2,-1
 402055c:	1085883a 	add	r2,r2,r2
 4020560:	1085883a 	add	r2,r2,r2
 4020564:	e0f7e704 	addi	r3,fp,-8292
 4020568:	1885883a 	add	r2,r3,r2
 402056c:	10c00904 	addi	r3,r2,36
 4020570:	00aaaaf4 	movhi	r2,43691
 4020574:	10aaaa84 	addi	r2,r2,-21846
 4020578:	18800015 	stw	r2,0(r3)
    szData[nItemNum-2] = 0x55555555;
 402057c:	e0b7ee17 	ldw	r2,-8264(fp)
 4020580:	10bfff84 	addi	r2,r2,-2
 4020584:	1085883a 	add	r2,r2,r2
 4020588:	1085883a 	add	r2,r2,r2
 402058c:	e137e704 	addi	r4,fp,-8292
 4020590:	2085883a 	add	r2,r4,r2
 4020594:	10c00904 	addi	r3,r2,36
 4020598:	00955574 	movhi	r2,21845
 402059c:	10955544 	addi	r2,r2,21845
 40205a0:	18800015 	stw	r2,0(r3)
    szData[nItemNum-3] = 0x00000000;
 40205a4:	e0b7ee17 	ldw	r2,-8264(fp)
 40205a8:	10bfff44 	addi	r2,r2,-3
 40205ac:	1085883a 	add	r2,r2,r2
 40205b0:	1085883a 	add	r2,r2,r2
 40205b4:	e0f7e704 	addi	r3,fp,-8292
 40205b8:	1885883a 	add	r2,r3,r2
 40205bc:	10800904 	addi	r2,r2,36
 40205c0:	10000015 	stw	zero,0(r2)
    szData[nItemNum-4] = 0xFFFFFFFF;
 40205c4:	e0b7ee17 	ldw	r2,-8264(fp)
 40205c8:	10bfff04 	addi	r2,r2,-4
 40205cc:	1085883a 	add	r2,r2,r2
 40205d0:	1085883a 	add	r2,r2,r2
 40205d4:	e137e704 	addi	r4,fp,-8292
 40205d8:	2085883a 	add	r2,r4,r2
 40205dc:	10800904 	addi	r2,r2,36
 40205e0:	00ffffc4 	movi	r3,-1
 40205e4:	10c00015 	stw	r3,0(r2)
    
    if (bShowMessage)
 40205e8:	e0bfff17 	ldw	r2,-4(fp)
 40205ec:	10000326 	beq	r2,zero,40205fc <TMEM_Verify+0x1dc>
        printf("write...\n");
 40205f0:	01000034 	movhi	r4,0
 40205f4:	21003e04 	addi	r4,r4,248
 40205f8:	4020fe80 	call	4020fe8 <puts>
    // write
    pDes = (alt_u32 *)BaseAddr;
 40205fc:	e0bffc17 	ldw	r2,-16(fp)
 4020600:	e0b7ea15 	stw	r2,-8280(fp)
    nAccessLen = sizeof(szData);
 4020604:	00840104 	movi	r2,4100
 4020608:	e0b7e915 	stw	r2,-8284(fp)
    nPos = 0;
 402060c:	e037ec15 	stw	zero,-8272(fp)
    while(nPos < ByteLen){
 4020610:	00003706 	br	40206f0 <TMEM_Verify+0x2d0>
        nRemainedLen = ByteLen - nPos;
 4020614:	e0fffd17 	ldw	r3,-12(fp)
 4020618:	e0b7ec17 	ldw	r2,-8272(fp)
 402061c:	1885c83a 	sub	r2,r3,r2
 4020620:	e0b7ef15 	stw	r2,-8260(fp)
        if (nAccessLen > nRemainedLen)
 4020624:	e0b7e917 	ldw	r2,-8284(fp)
 4020628:	e0f7ef17 	ldw	r3,-8260(fp)
 402062c:	1880020e 	bge	r3,r2,4020638 <TMEM_Verify+0x218>
            nAccessLen = nRemainedLen;
 4020630:	e0b7ef17 	ldw	r2,-8260(fp)
 4020634:	e0b7e915 	stw	r2,-8284(fp)
        memcpy(pDes, szData, nAccessLen);
 4020638:	e0f7e917 	ldw	r3,-8284(fp)
 402063c:	e0b7f004 	addi	r2,fp,-8256
 4020640:	180d883a 	mov	r6,r3
 4020644:	100b883a 	mov	r5,r2
 4020648:	e137ea17 	ldw	r4,-8280(fp)
 402064c:	4020d540 	call	4020d54 <memcpy>
        pDes += nAccessLen/4;
 4020650:	e0b7e917 	ldw	r2,-8284(fp)
 4020654:	1000010e 	bge	r2,zero,402065c <TMEM_Verify+0x23c>
 4020658:	108000c4 	addi	r2,r2,3
 402065c:	1005d0ba 	srai	r2,r2,2
 4020660:	1085883a 	add	r2,r2,r2
 4020664:	1085883a 	add	r2,r2,r2
 4020668:	1007883a 	mov	r3,r2
 402066c:	e0b7ea17 	ldw	r2,-8280(fp)
 4020670:	10c5883a 	add	r2,r2,r3
 4020674:	e0b7ea15 	stw	r2,-8280(fp)
        nPos += nAccessLen;
 4020678:	e0b7e917 	ldw	r2,-8284(fp)
 402067c:	e0f7ec17 	ldw	r3,-8272(fp)
 4020680:	1885883a 	add	r2,r3,r2
 4020684:	e0b7ec15 	stw	r2,-8272(fp)
        
        if (bShowMessage){
 4020688:	e0bfff17 	ldw	r2,-4(fp)
 402068c:	10001826 	beq	r2,zero,40206f0 <TMEM_Verify+0x2d0>
            if (nProgressIndex <= 9 && nPos >= szProgress[nProgressIndex]){
 4020690:	e0b7ed17 	ldw	r2,-8268(fp)
 4020694:	10800288 	cmpgei	r2,r2,10
 4020698:	1000151e 	bne	r2,zero,40206f0 <TMEM_Verify+0x2d0>
 402069c:	e0b7ed17 	ldw	r2,-8268(fp)
 40206a0:	1085883a 	add	r2,r2,r2
 40206a4:	1085883a 	add	r2,r2,r2
 40206a8:	e0f7e704 	addi	r3,fp,-8292
 40206ac:	1885883a 	add	r2,r3,r2
 40206b0:	10880b04 	addi	r2,r2,8236
 40206b4:	10800017 	ldw	r2,0(r2)
 40206b8:	e0f7ec17 	ldw	r3,-8272(fp)
 40206bc:	18800c36 	bltu	r3,r2,40206f0 <TMEM_Verify+0x2d0>
                nProgressIndex++;
 40206c0:	e0b7ed17 	ldw	r2,-8268(fp)
 40206c4:	10800044 	addi	r2,r2,1
 40206c8:	e0b7ed15 	stw	r2,-8268(fp)
                printf("%02d%% ", nProgressIndex*10);
 40206cc:	01400284 	movi	r5,10
 40206d0:	e137ed17 	ldw	r4,-8268(fp)
 40206d4:	4020d2c0 	call	4020d2c <__mulsi3>
 40206d8:	100b883a 	mov	r5,r2
 40206dc:	01000034 	movhi	r4,0
 40206e0:	21004104 	addi	r4,r4,260
 40206e4:	4020ecc0 	call	4020ecc <printf>
                usleep(50);
 40206e8:	01000c84 	movi	r4,50
 40206ec:	402e7e40 	call	402e7e4 <usleep>
        printf("write...\n");
    // write
    pDes = (alt_u32 *)BaseAddr;
    nAccessLen = sizeof(szData);
    nPos = 0;
    while(nPos < ByteLen){
 40206f0:	e0f7ec17 	ldw	r3,-8272(fp)
 40206f4:	e0bffd17 	ldw	r2,-12(fp)
 40206f8:	18bfc636 	bltu	r3,r2,4020614 <__flash_rwdata_start+0xfffefadc>
                usleep(50);
            }
        }            
    } 
    
    alt_dcache_flush_all();
 40206fc:	402dedc0 	call	402dedc <alt_dcache_flush_all>
    
    if (bShowMessage){
 4020700:	e0bfff17 	ldw	r2,-4(fp)
 4020704:	10000626 	beq	r2,zero,4020720 <TMEM_Verify+0x300>
        nProgressIndex = 0;
 4020708:	e037ed15 	stw	zero,-8268(fp)
        printf("\nread/verify...\n");
 402070c:	01000034 	movhi	r4,0
 4020710:	21004304 	addi	r4,r4,268
 4020714:	4020fe80 	call	4020fe8 <puts>
        usleep(50);
 4020718:	01000c84 	movi	r4,50
 402071c:	402e7e40 	call	402e7e4 <usleep>
    }        
    
    // read & verify
    pSrc = (alt_u32 *)BaseAddr;
 4020720:	e0bffc17 	ldw	r2,-16(fp)
 4020724:	e0b7eb15 	stw	r2,-8276(fp)
    nAccessLen = sizeof(szRead);
 4020728:	00840104 	movi	r2,4100
 402072c:	e0b7e915 	stw	r2,-8284(fp)
    nPos = 0;
 4020730:	e037ec15 	stw	zero,-8272(fp)
    while(bPass && nPos < ByteLen){
 4020734:	00007106 	br	40208fc <TMEM_Verify+0x4dc>
        nRemainedLen = ByteLen - nPos;
 4020738:	e0fffd17 	ldw	r3,-12(fp)
 402073c:	e0b7ec17 	ldw	r2,-8272(fp)
 4020740:	1885c83a 	sub	r2,r3,r2
 4020744:	e0b7ef15 	stw	r2,-8260(fp)
        if (nAccessLen > nRemainedLen)
 4020748:	e0b7e917 	ldw	r2,-8284(fp)
 402074c:	e0f7ef17 	ldw	r3,-8260(fp)
 4020750:	1880020e 	bge	r3,r2,402075c <TMEM_Verify+0x33c>
            nAccessLen = nRemainedLen;
 4020754:	e0b7ef17 	ldw	r2,-8260(fp)
 4020758:	e0b7e915 	stw	r2,-8284(fp)
       // memset(szRead, 0xAA, nAccessLen); // reset content    
        memcpy(szRead, pSrc, nAccessLen);
 402075c:	e0f7e917 	ldw	r3,-8284(fp)
 4020760:	e0bbf104 	addi	r2,fp,-4156
 4020764:	180d883a 	mov	r6,r3
 4020768:	e177eb17 	ldw	r5,-8276(fp)
 402076c:	1009883a 	mov	r4,r2
 4020770:	4020d540 	call	4020d54 <memcpy>
        // verify
        nItemNum = nAccessLen / 4;
 4020774:	e0b7e917 	ldw	r2,-8284(fp)
 4020778:	1000010e 	bge	r2,zero,4020780 <TMEM_Verify+0x360>
 402077c:	108000c4 	addi	r2,r2,3
 4020780:	1005d0ba 	srai	r2,r2,2
 4020784:	e0b7ee15 	stw	r2,-8264(fp)
        for(i=0;i<nItemNum && bPass;i++){
 4020788:	e037e815 	stw	zero,-8288(fp)
 402078c:	00003106 	br	4020854 <TMEM_Verify+0x434>
            if (szRead[i] != szData[i]){
 4020790:	e0b7e817 	ldw	r2,-8288(fp)
 4020794:	1085883a 	add	r2,r2,r2
 4020798:	1085883a 	add	r2,r2,r2
 402079c:	e137e704 	addi	r4,fp,-8292
 40207a0:	2085883a 	add	r2,r4,r2
 40207a4:	10840a04 	addi	r2,r2,4136
 40207a8:	10c00017 	ldw	r3,0(r2)
 40207ac:	e0b7e817 	ldw	r2,-8288(fp)
 40207b0:	1085883a 	add	r2,r2,r2
 40207b4:	1085883a 	add	r2,r2,r2
 40207b8:	e137e704 	addi	r4,fp,-8292
 40207bc:	2085883a 	add	r2,r4,r2
 40207c0:	10800904 	addi	r2,r2,36
 40207c4:	10800017 	ldw	r2,0(r2)
 40207c8:	18801f26 	beq	r3,r2,4020848 <TMEM_Verify+0x428>
                if (bShowMessage){
 40207cc:	e0bfff17 	ldw	r2,-4(fp)
 40207d0:	10001c26 	beq	r2,zero,4020844 <TMEM_Verify+0x424>
                   printf("verify ng, read=%08Xh, expected=%08Xh, i=%Xh\n", (int)szRead[i], (int)szData[i], (int)(nPos/4+i));
 40207d4:	e0b7e817 	ldw	r2,-8288(fp)
 40207d8:	1085883a 	add	r2,r2,r2
 40207dc:	1085883a 	add	r2,r2,r2
 40207e0:	e0f7e704 	addi	r3,fp,-8292
 40207e4:	1885883a 	add	r2,r3,r2
 40207e8:	10840a04 	addi	r2,r2,4136
 40207ec:	10800017 	ldw	r2,0(r2)
 40207f0:	1009883a 	mov	r4,r2
 40207f4:	e0b7e817 	ldw	r2,-8288(fp)
 40207f8:	1085883a 	add	r2,r2,r2
 40207fc:	1085883a 	add	r2,r2,r2
 4020800:	e0f7e704 	addi	r3,fp,-8292
 4020804:	1885883a 	add	r2,r3,r2
 4020808:	10800904 	addi	r2,r2,36
 402080c:	10800017 	ldw	r2,0(r2)
 4020810:	100b883a 	mov	r5,r2
 4020814:	e0b7ec17 	ldw	r2,-8272(fp)
 4020818:	1006d0ba 	srli	r3,r2,2
 402081c:	e0b7e817 	ldw	r2,-8288(fp)
 4020820:	1885883a 	add	r2,r3,r2
 4020824:	100f883a 	mov	r7,r2
 4020828:	280d883a 	mov	r6,r5
 402082c:	200b883a 	mov	r5,r4
 4020830:	01000034 	movhi	r4,0
 4020834:	21004704 	addi	r4,r4,284
 4020838:	4020ecc0 	call	4020ecc <printf>
                   usleep(50);
 402083c:	01000c84 	movi	r4,50
 4020840:	402e7e40 	call	402e7e4 <usleep>
                }   
                bPass = FALSE;
 4020844:	e037e715 	stw	zero,-8292(fp)
            nAccessLen = nRemainedLen;
       // memset(szRead, 0xAA, nAccessLen); // reset content    
        memcpy(szRead, pSrc, nAccessLen);
        // verify
        nItemNum = nAccessLen / 4;
        for(i=0;i<nItemNum && bPass;i++){
 4020848:	e0b7e817 	ldw	r2,-8288(fp)
 402084c:	10800044 	addi	r2,r2,1
 4020850:	e0b7e815 	stw	r2,-8288(fp)
 4020854:	e0f7e817 	ldw	r3,-8288(fp)
 4020858:	e0b7ee17 	ldw	r2,-8264(fp)
 402085c:	1880022e 	bgeu	r3,r2,4020868 <TMEM_Verify+0x448>
 4020860:	e0b7e717 	ldw	r2,-8292(fp)
 4020864:	103fca1e 	bne	r2,zero,4020790 <__flash_rwdata_start+0xfffefc58>
                }   
                bPass = FALSE;
            }    
        }
        //
        pSrc += nItemNum;
 4020868:	e0b7ee17 	ldw	r2,-8264(fp)
 402086c:	1085883a 	add	r2,r2,r2
 4020870:	1085883a 	add	r2,r2,r2
 4020874:	1007883a 	mov	r3,r2
 4020878:	e0b7eb17 	ldw	r2,-8276(fp)
 402087c:	10c5883a 	add	r2,r2,r3
 4020880:	e0b7eb15 	stw	r2,-8276(fp)
        nPos += nAccessLen;
 4020884:	e0b7e917 	ldw	r2,-8284(fp)
 4020888:	e0f7ec17 	ldw	r3,-8272(fp)
 402088c:	1885883a 	add	r2,r3,r2
 4020890:	e0b7ec15 	stw	r2,-8272(fp)

        if (bShowMessage){
 4020894:	e0bfff17 	ldw	r2,-4(fp)
 4020898:	10001826 	beq	r2,zero,40208fc <TMEM_Verify+0x4dc>
            if (nProgressIndex <= 9 && nPos >= szProgress[nProgressIndex]){
 402089c:	e0b7ed17 	ldw	r2,-8268(fp)
 40208a0:	10800288 	cmpgei	r2,r2,10
 40208a4:	1000151e 	bne	r2,zero,40208fc <TMEM_Verify+0x4dc>
 40208a8:	e0b7ed17 	ldw	r2,-8268(fp)
 40208ac:	1085883a 	add	r2,r2,r2
 40208b0:	1085883a 	add	r2,r2,r2
 40208b4:	e137e704 	addi	r4,fp,-8292
 40208b8:	2085883a 	add	r2,r4,r2
 40208bc:	10880b04 	addi	r2,r2,8236
 40208c0:	10800017 	ldw	r2,0(r2)
 40208c4:	e0f7ec17 	ldw	r3,-8272(fp)
 40208c8:	18800c36 	bltu	r3,r2,40208fc <TMEM_Verify+0x4dc>
                nProgressIndex++;
 40208cc:	e0b7ed17 	ldw	r2,-8268(fp)
 40208d0:	10800044 	addi	r2,r2,1
 40208d4:	e0b7ed15 	stw	r2,-8268(fp)
                printf("%02d%% ", nProgressIndex*10);
 40208d8:	01400284 	movi	r5,10
 40208dc:	e137ed17 	ldw	r4,-8268(fp)
 40208e0:	4020d2c0 	call	4020d2c <__mulsi3>
 40208e4:	100b883a 	mov	r5,r2
 40208e8:	01000034 	movhi	r4,0
 40208ec:	21004104 	addi	r4,r4,260
 40208f0:	4020ecc0 	call	4020ecc <printf>
                usleep(50);
 40208f4:	01000c84 	movi	r4,50
 40208f8:	402e7e40 	call	402e7e4 <usleep>
    
    // read & verify
    pSrc = (alt_u32 *)BaseAddr;
    nAccessLen = sizeof(szRead);
    nPos = 0;
    while(bPass && nPos < ByteLen){
 40208fc:	e0b7e717 	ldw	r2,-8292(fp)
 4020900:	10000326 	beq	r2,zero,4020910 <TMEM_Verify+0x4f0>
 4020904:	e0f7ec17 	ldw	r3,-8272(fp)
 4020908:	e0bffd17 	ldw	r2,-12(fp)
 402090c:	18bf8a36 	bltu	r3,r2,4020738 <__flash_rwdata_start+0xfffefc00>
                usleep(50);
            }
        }            
    }     
    
    if (bShowMessage)
 4020910:	e0bfff17 	ldw	r2,-4(fp)
 4020914:	10000226 	beq	r2,zero,4020920 <TMEM_Verify+0x500>
        printf("\n");
 4020918:	01000284 	movi	r4,10
 402091c:	4020f100 	call	4020f10 <putchar>
   
    
    return bPass;
 4020920:	e0b7e717 	ldw	r2,-8292(fp)
}
 4020924:	e037883a 	mov	sp,fp
 4020928:	dfc00117 	ldw	ra,4(sp)
 402092c:	df000017 	ldw	fp,0(sp)
 4020930:	dec00204 	addi	sp,sp,8
 4020934:	f800283a 	ret

04020938 <TMEM_QuickVerify>:

bool TMEM_QuickVerify(alt_u32 BaseAddr, alt_u32 DataSize, alt_u32 DataWidth, alt_u32 AddrWidth){
 4020938:	defff104 	addi	sp,sp,-60
 402093c:	dfc00e15 	stw	ra,56(sp)
 4020940:	df000d15 	stw	fp,52(sp)
 4020944:	df000d04 	addi	fp,sp,52
 4020948:	e13ffc15 	stw	r4,-16(fp)
 402094c:	e17ffd15 	stw	r5,-12(fp)
 4020950:	e1bffe15 	stw	r6,-8(fp)
 4020954:	e1ffff15 	stw	r7,-4(fp)
    bool bPass = TRUE;
 4020958:	00800044 	movi	r2,1
 402095c:	e0bff315 	stw	r2,-52(fp)
    const alt_u32 TestNum = 1024*512;
 4020960:	00800234 	movhi	r2,8
 4020964:	e0bff615 	stw	r2,-40(fp)
    const alt_u32 TestPattern = 0xAA;
 4020968:	00802a84 	movi	r2,170
 402096c:	e0bff715 	stw	r2,-36(fp)
    alt_u32 mask, Read32, Addr32, TestData32, TestAddr32;
    int i;
    
    //alt_u32 *pMem = (alt_u32 *)BaseAddr;
    // test address line
    mask = 0x01;
 4020970:	00800044 	movi	r2,1
 4020974:	e0bff415 	stw	r2,-48(fp)
    for(i=0;i<AddrWidth && bPass;i++){
 4020978:	e03ff515 	stw	zero,-44(fp)
 402097c:	00001b06 	br	40209ec <TMEM_QuickVerify+0xb4>
        //*(pMem + mask) = TestPattern;
        IOWR(BaseAddr, mask, TestPattern);
 4020980:	e0bff417 	ldw	r2,-48(fp)
 4020984:	1085883a 	add	r2,r2,r2
 4020988:	1085883a 	add	r2,r2,r2
 402098c:	1007883a 	mov	r3,r2
 4020990:	e0bffc17 	ldw	r2,-16(fp)
 4020994:	1885883a 	add	r2,r3,r2
 4020998:	1007883a 	mov	r3,r2
 402099c:	e0bff717 	ldw	r2,-36(fp)
 40209a0:	18800035 	stwio	r2,0(r3)
        //if (*(pMem + mask) != TestPattern)
        Read32 = IORD(BaseAddr, mask);
 40209a4:	e0bff417 	ldw	r2,-48(fp)
 40209a8:	1085883a 	add	r2,r2,r2
 40209ac:	1085883a 	add	r2,r2,r2
 40209b0:	1007883a 	mov	r3,r2
 40209b4:	e0bffc17 	ldw	r2,-16(fp)
 40209b8:	1885883a 	add	r2,r3,r2
 40209bc:	10800037 	ldwio	r2,0(r2)
 40209c0:	e0bff815 	stw	r2,-32(fp)
        if (Read32 != TestPattern)
 40209c4:	e0fff817 	ldw	r3,-32(fp)
 40209c8:	e0bff717 	ldw	r2,-36(fp)
 40209cc:	18800126 	beq	r3,r2,40209d4 <TMEM_QuickVerify+0x9c>
            bPass = FALSE;
 40209d0:	e03ff315 	stw	zero,-52(fp)
        mask <<= 1;    
 40209d4:	e0bff417 	ldw	r2,-48(fp)
 40209d8:	1085883a 	add	r2,r2,r2
 40209dc:	e0bff415 	stw	r2,-48(fp)
    int i;
    
    //alt_u32 *pMem = (alt_u32 *)BaseAddr;
    // test address line
    mask = 0x01;
    for(i=0;i<AddrWidth && bPass;i++){
 40209e0:	e0bff517 	ldw	r2,-44(fp)
 40209e4:	10800044 	addi	r2,r2,1
 40209e8:	e0bff515 	stw	r2,-44(fp)
 40209ec:	e0fff517 	ldw	r3,-44(fp)
 40209f0:	e0bfff17 	ldw	r2,-4(fp)
 40209f4:	1880022e 	bgeu	r3,r2,4020a00 <TMEM_QuickVerify+0xc8>
 40209f8:	e0bff317 	ldw	r2,-52(fp)
 40209fc:	103fe01e 	bne	r2,zero,4020980 <__flash_rwdata_start+0xfffefe48>
            bPass = FALSE;
        mask <<= 1;    
    }
    
    // test data line
    mask = 0x01;
 4020a00:	00800044 	movi	r2,1
 4020a04:	e0bff415 	stw	r2,-48(fp)
    for(i=0;i<DataWidth && bPass;i++){
 4020a08:	e03ff515 	stw	zero,-44(fp)
 4020a0c:	00002306 	br	4020a9c <TMEM_QuickVerify+0x164>
        //*(pMem+i/32) = mask;
        Addr32 = i*13;
 4020a10:	01400344 	movi	r5,13
 4020a14:	e13ff517 	ldw	r4,-44(fp)
 4020a18:	4020d2c0 	call	4020d2c <__mulsi3>
 4020a1c:	e0bff915 	stw	r2,-28(fp)
        IOWR(BaseAddr, Addr32, mask);
 4020a20:	e0bff917 	ldw	r2,-28(fp)
 4020a24:	1085883a 	add	r2,r2,r2
 4020a28:	1085883a 	add	r2,r2,r2
 4020a2c:	1007883a 	mov	r3,r2
 4020a30:	e0bffc17 	ldw	r2,-16(fp)
 4020a34:	1885883a 	add	r2,r3,r2
 4020a38:	1007883a 	mov	r3,r2
 4020a3c:	e0bff417 	ldw	r2,-48(fp)
 4020a40:	18800035 	stwio	r2,0(r3)
        Read32 = IORD(BaseAddr, Addr32);
 4020a44:	e0bff917 	ldw	r2,-28(fp)
 4020a48:	1085883a 	add	r2,r2,r2
 4020a4c:	1085883a 	add	r2,r2,r2
 4020a50:	1007883a 	mov	r3,r2
 4020a54:	e0bffc17 	ldw	r2,-16(fp)
 4020a58:	1885883a 	add	r2,r3,r2
 4020a5c:	10800037 	ldwio	r2,0(r2)
 4020a60:	e0bff815 	stw	r2,-32(fp)
        //if (*(pMem+i/32) != mask)
        if (Read32 != mask)
 4020a64:	e0fff817 	ldw	r3,-32(fp)
 4020a68:	e0bff417 	ldw	r2,-48(fp)
 4020a6c:	18800126 	beq	r3,r2,4020a74 <TMEM_QuickVerify+0x13c>
            bPass = FALSE;
 4020a70:	e03ff315 	stw	zero,-52(fp)
        mask <<= 1;
 4020a74:	e0bff417 	ldw	r2,-48(fp)
 4020a78:	1085883a 	add	r2,r2,r2
 4020a7c:	e0bff415 	stw	r2,-48(fp)
        if (mask == 0x00)
 4020a80:	e0bff417 	ldw	r2,-48(fp)
 4020a84:	1000021e 	bne	r2,zero,4020a90 <TMEM_QuickVerify+0x158>
            mask = 0x01;    
 4020a88:	00800044 	movi	r2,1
 4020a8c:	e0bff415 	stw	r2,-48(fp)
        mask <<= 1;    
    }
    
    // test data line
    mask = 0x01;
    for(i=0;i<DataWidth && bPass;i++){
 4020a90:	e0bff517 	ldw	r2,-44(fp)
 4020a94:	10800044 	addi	r2,r2,1
 4020a98:	e0bff515 	stw	r2,-44(fp)
 4020a9c:	e0fff517 	ldw	r3,-44(fp)
 4020aa0:	e0bffe17 	ldw	r2,-8(fp)
 4020aa4:	1880022e 	bgeu	r3,r2,4020ab0 <TMEM_QuickVerify+0x178>
 4020aa8:	e0bff317 	ldw	r2,-52(fp)
 4020aac:	103fd81e 	bne	r2,zero,4020a10 <__flash_rwdata_start+0xfffefed8>
 * alt_nticks() returns the elapsed number of system clock ticks since reset.
 */

static ALT_INLINE alt_u32 ALT_ALWAYS_INLINE alt_nticks (void)
{
  return _alt_nticks;
 4020ab0:	d0a01b17 	ldw	r2,-32660(gp)
        if (mask == 0x00)
            mask = 0x01;    
    }
    
    // random data test
    srand(alt_nticks());
 4020ab4:	1009883a 	mov	r4,r2
 4020ab8:	4020ffc0 	call	4020ffc <srand>
    for(i=0;i<TestNum && bPass;i++){
 4020abc:	e03ff515 	stw	zero,-44(fp)
 4020ac0:	00002206 	br	4020b4c <TMEM_QuickVerify+0x214>
        TestAddr32 = rand()%(DataSize/4);
 4020ac4:	40210140 	call	4021014 <rand>
 4020ac8:	1007883a 	mov	r3,r2
 4020acc:	e0bffd17 	ldw	r2,-12(fp)
 4020ad0:	1004d0ba 	srli	r2,r2,2
 4020ad4:	100b883a 	mov	r5,r2
 4020ad8:	1809883a 	mov	r4,r3
 4020adc:	4020cd40 	call	4020cd4 <__umodsi3>
 4020ae0:	e0bffa15 	stw	r2,-24(fp)
        TestData32 = rand();
 4020ae4:	40210140 	call	4021014 <rand>
 4020ae8:	e0bffb15 	stw	r2,-20(fp)
        IOWR(BaseAddr, TestAddr32, TestData32);
 4020aec:	e0bffa17 	ldw	r2,-24(fp)
 4020af0:	1085883a 	add	r2,r2,r2
 4020af4:	1085883a 	add	r2,r2,r2
 4020af8:	1007883a 	mov	r3,r2
 4020afc:	e0bffc17 	ldw	r2,-16(fp)
 4020b00:	1885883a 	add	r2,r3,r2
 4020b04:	1007883a 	mov	r3,r2
 4020b08:	e0bffb17 	ldw	r2,-20(fp)
 4020b0c:	18800035 	stwio	r2,0(r3)
        Read32 = IORD(BaseAddr, TestAddr32);
 4020b10:	e0bffa17 	ldw	r2,-24(fp)
 4020b14:	1085883a 	add	r2,r2,r2
 4020b18:	1085883a 	add	r2,r2,r2
 4020b1c:	1007883a 	mov	r3,r2
 4020b20:	e0bffc17 	ldw	r2,-16(fp)
 4020b24:	1885883a 	add	r2,r3,r2
 4020b28:	10800037 	ldwio	r2,0(r2)
 4020b2c:	e0bff815 	stw	r2,-32(fp)
        if (Read32 != TestData32)
 4020b30:	e0fff817 	ldw	r3,-32(fp)
 4020b34:	e0bffb17 	ldw	r2,-20(fp)
 4020b38:	18800126 	beq	r3,r2,4020b40 <TMEM_QuickVerify+0x208>
            bPass = FALSE;        
 4020b3c:	e03ff315 	stw	zero,-52(fp)
            mask = 0x01;    
    }
    
    // random data test
    srand(alt_nticks());
    for(i=0;i<TestNum && bPass;i++){
 4020b40:	e0bff517 	ldw	r2,-44(fp)
 4020b44:	10800044 	addi	r2,r2,1
 4020b48:	e0bff515 	stw	r2,-44(fp)
 4020b4c:	e0fff517 	ldw	r3,-44(fp)
 4020b50:	e0bff617 	ldw	r2,-40(fp)
 4020b54:	1880022e 	bgeu	r3,r2,4020b60 <TMEM_QuickVerify+0x228>
 4020b58:	e0bff317 	ldw	r2,-52(fp)
 4020b5c:	103fd91e 	bne	r2,zero,4020ac4 <__flash_rwdata_start+0xfffeff8c>
        if (Read32 != TestData32)
            bPass = FALSE;        
        
    }
    
    return bPass;
 4020b60:	e0bff317 	ldw	r2,-52(fp)
}
 4020b64:	e037883a 	mov	sp,fp
 4020b68:	dfc00117 	ldw	ra,4(sp)
 4020b6c:	df000017 	ldw	fp,0(sp)
 4020b70:	dec00204 	addi	sp,sp,8
 4020b74:	f800283a 	ret

04020b78 <__divsi3>:
 4020b78:	20001b16 	blt	r4,zero,4020be8 <__divsi3+0x70>
 4020b7c:	000f883a 	mov	r7,zero
 4020b80:	28001616 	blt	r5,zero,4020bdc <__divsi3+0x64>
 4020b84:	200d883a 	mov	r6,r4
 4020b88:	29001a2e 	bgeu	r5,r4,4020bf4 <__divsi3+0x7c>
 4020b8c:	00800804 	movi	r2,32
 4020b90:	00c00044 	movi	r3,1
 4020b94:	00000106 	br	4020b9c <__divsi3+0x24>
 4020b98:	10000d26 	beq	r2,zero,4020bd0 <__divsi3+0x58>
 4020b9c:	294b883a 	add	r5,r5,r5
 4020ba0:	10bfffc4 	addi	r2,r2,-1
 4020ba4:	18c7883a 	add	r3,r3,r3
 4020ba8:	293ffb36 	bltu	r5,r4,4020b98 <__flash_rwdata_start+0xffff0060>
 4020bac:	0005883a 	mov	r2,zero
 4020bb0:	18000726 	beq	r3,zero,4020bd0 <__divsi3+0x58>
 4020bb4:	0005883a 	mov	r2,zero
 4020bb8:	31400236 	bltu	r6,r5,4020bc4 <__divsi3+0x4c>
 4020bbc:	314dc83a 	sub	r6,r6,r5
 4020bc0:	10c4b03a 	or	r2,r2,r3
 4020bc4:	1806d07a 	srli	r3,r3,1
 4020bc8:	280ad07a 	srli	r5,r5,1
 4020bcc:	183ffa1e 	bne	r3,zero,4020bb8 <__flash_rwdata_start+0xffff0080>
 4020bd0:	38000126 	beq	r7,zero,4020bd8 <__divsi3+0x60>
 4020bd4:	0085c83a 	sub	r2,zero,r2
 4020bd8:	f800283a 	ret
 4020bdc:	014bc83a 	sub	r5,zero,r5
 4020be0:	39c0005c 	xori	r7,r7,1
 4020be4:	003fe706 	br	4020b84 <__flash_rwdata_start+0xffff004c>
 4020be8:	0109c83a 	sub	r4,zero,r4
 4020bec:	01c00044 	movi	r7,1
 4020bf0:	003fe306 	br	4020b80 <__flash_rwdata_start+0xffff0048>
 4020bf4:	00c00044 	movi	r3,1
 4020bf8:	003fee06 	br	4020bb4 <__flash_rwdata_start+0xffff007c>

04020bfc <__modsi3>:
 4020bfc:	20001716 	blt	r4,zero,4020c5c <__modsi3+0x60>
 4020c00:	000f883a 	mov	r7,zero
 4020c04:	2005883a 	mov	r2,r4
 4020c08:	28001216 	blt	r5,zero,4020c54 <__modsi3+0x58>
 4020c0c:	2900162e 	bgeu	r5,r4,4020c68 <__modsi3+0x6c>
 4020c10:	01800804 	movi	r6,32
 4020c14:	00c00044 	movi	r3,1
 4020c18:	00000106 	br	4020c20 <__modsi3+0x24>
 4020c1c:	30000a26 	beq	r6,zero,4020c48 <__modsi3+0x4c>
 4020c20:	294b883a 	add	r5,r5,r5
 4020c24:	31bfffc4 	addi	r6,r6,-1
 4020c28:	18c7883a 	add	r3,r3,r3
 4020c2c:	293ffb36 	bltu	r5,r4,4020c1c <__flash_rwdata_start+0xffff00e4>
 4020c30:	18000526 	beq	r3,zero,4020c48 <__modsi3+0x4c>
 4020c34:	1806d07a 	srli	r3,r3,1
 4020c38:	11400136 	bltu	r2,r5,4020c40 <__modsi3+0x44>
 4020c3c:	1145c83a 	sub	r2,r2,r5
 4020c40:	280ad07a 	srli	r5,r5,1
 4020c44:	183ffb1e 	bne	r3,zero,4020c34 <__flash_rwdata_start+0xffff00fc>
 4020c48:	38000126 	beq	r7,zero,4020c50 <__modsi3+0x54>
 4020c4c:	0085c83a 	sub	r2,zero,r2
 4020c50:	f800283a 	ret
 4020c54:	014bc83a 	sub	r5,zero,r5
 4020c58:	003fec06 	br	4020c0c <__flash_rwdata_start+0xffff00d4>
 4020c5c:	0109c83a 	sub	r4,zero,r4
 4020c60:	01c00044 	movi	r7,1
 4020c64:	003fe706 	br	4020c04 <__flash_rwdata_start+0xffff00cc>
 4020c68:	00c00044 	movi	r3,1
 4020c6c:	003ff106 	br	4020c34 <__flash_rwdata_start+0xffff00fc>

04020c70 <__udivsi3>:
 4020c70:	200d883a 	mov	r6,r4
 4020c74:	2900152e 	bgeu	r5,r4,4020ccc <__udivsi3+0x5c>
 4020c78:	28001416 	blt	r5,zero,4020ccc <__udivsi3+0x5c>
 4020c7c:	00800804 	movi	r2,32
 4020c80:	00c00044 	movi	r3,1
 4020c84:	00000206 	br	4020c90 <__udivsi3+0x20>
 4020c88:	10000e26 	beq	r2,zero,4020cc4 <__udivsi3+0x54>
 4020c8c:	28000516 	blt	r5,zero,4020ca4 <__udivsi3+0x34>
 4020c90:	294b883a 	add	r5,r5,r5
 4020c94:	10bfffc4 	addi	r2,r2,-1
 4020c98:	18c7883a 	add	r3,r3,r3
 4020c9c:	293ffa36 	bltu	r5,r4,4020c88 <__flash_rwdata_start+0xffff0150>
 4020ca0:	18000826 	beq	r3,zero,4020cc4 <__udivsi3+0x54>
 4020ca4:	0005883a 	mov	r2,zero
 4020ca8:	31400236 	bltu	r6,r5,4020cb4 <__udivsi3+0x44>
 4020cac:	314dc83a 	sub	r6,r6,r5
 4020cb0:	10c4b03a 	or	r2,r2,r3
 4020cb4:	1806d07a 	srli	r3,r3,1
 4020cb8:	280ad07a 	srli	r5,r5,1
 4020cbc:	183ffa1e 	bne	r3,zero,4020ca8 <__flash_rwdata_start+0xffff0170>
 4020cc0:	f800283a 	ret
 4020cc4:	0005883a 	mov	r2,zero
 4020cc8:	f800283a 	ret
 4020ccc:	00c00044 	movi	r3,1
 4020cd0:	003ff406 	br	4020ca4 <__flash_rwdata_start+0xffff016c>

04020cd4 <__umodsi3>:
 4020cd4:	2005883a 	mov	r2,r4
 4020cd8:	2900122e 	bgeu	r5,r4,4020d24 <__umodsi3+0x50>
 4020cdc:	28001116 	blt	r5,zero,4020d24 <__umodsi3+0x50>
 4020ce0:	01800804 	movi	r6,32
 4020ce4:	00c00044 	movi	r3,1
 4020ce8:	00000206 	br	4020cf4 <__umodsi3+0x20>
 4020cec:	30000c26 	beq	r6,zero,4020d20 <__umodsi3+0x4c>
 4020cf0:	28000516 	blt	r5,zero,4020d08 <__umodsi3+0x34>
 4020cf4:	294b883a 	add	r5,r5,r5
 4020cf8:	31bfffc4 	addi	r6,r6,-1
 4020cfc:	18c7883a 	add	r3,r3,r3
 4020d00:	293ffa36 	bltu	r5,r4,4020cec <__flash_rwdata_start+0xffff01b4>
 4020d04:	18000626 	beq	r3,zero,4020d20 <__umodsi3+0x4c>
 4020d08:	1806d07a 	srli	r3,r3,1
 4020d0c:	11400136 	bltu	r2,r5,4020d14 <__umodsi3+0x40>
 4020d10:	1145c83a 	sub	r2,r2,r5
 4020d14:	280ad07a 	srli	r5,r5,1
 4020d18:	183ffb1e 	bne	r3,zero,4020d08 <__flash_rwdata_start+0xffff01d0>
 4020d1c:	f800283a 	ret
 4020d20:	f800283a 	ret
 4020d24:	00c00044 	movi	r3,1
 4020d28:	003ff706 	br	4020d08 <__flash_rwdata_start+0xffff01d0>

04020d2c <__mulsi3>:
 4020d2c:	0005883a 	mov	r2,zero
 4020d30:	20000726 	beq	r4,zero,4020d50 <__mulsi3+0x24>
 4020d34:	20c0004c 	andi	r3,r4,1
 4020d38:	2008d07a 	srli	r4,r4,1
 4020d3c:	18000126 	beq	r3,zero,4020d44 <__mulsi3+0x18>
 4020d40:	1145883a 	add	r2,r2,r5
 4020d44:	294b883a 	add	r5,r5,r5
 4020d48:	203ffa1e 	bne	r4,zero,4020d34 <__flash_rwdata_start+0xffff01fc>
 4020d4c:	f800283a 	ret
 4020d50:	f800283a 	ret

04020d54 <memcpy>:
 4020d54:	defffd04 	addi	sp,sp,-12
 4020d58:	dfc00215 	stw	ra,8(sp)
 4020d5c:	dc400115 	stw	r17,4(sp)
 4020d60:	dc000015 	stw	r16,0(sp)
 4020d64:	00c003c4 	movi	r3,15
 4020d68:	2005883a 	mov	r2,r4
 4020d6c:	1980452e 	bgeu	r3,r6,4020e84 <memcpy+0x130>
 4020d70:	2906b03a 	or	r3,r5,r4
 4020d74:	18c000cc 	andi	r3,r3,3
 4020d78:	1800441e 	bne	r3,zero,4020e8c <memcpy+0x138>
 4020d7c:	347ffc04 	addi	r17,r6,-16
 4020d80:	8822d13a 	srli	r17,r17,4
 4020d84:	28c00104 	addi	r3,r5,4
 4020d88:	23400104 	addi	r13,r4,4
 4020d8c:	8820913a 	slli	r16,r17,4
 4020d90:	2b000204 	addi	r12,r5,8
 4020d94:	22c00204 	addi	r11,r4,8
 4020d98:	84000504 	addi	r16,r16,20
 4020d9c:	2a800304 	addi	r10,r5,12
 4020da0:	22400304 	addi	r9,r4,12
 4020da4:	2c21883a 	add	r16,r5,r16
 4020da8:	2811883a 	mov	r8,r5
 4020dac:	200f883a 	mov	r7,r4
 4020db0:	41000017 	ldw	r4,0(r8)
 4020db4:	1fc00017 	ldw	ra,0(r3)
 4020db8:	63c00017 	ldw	r15,0(r12)
 4020dbc:	39000015 	stw	r4,0(r7)
 4020dc0:	53800017 	ldw	r14,0(r10)
 4020dc4:	6fc00015 	stw	ra,0(r13)
 4020dc8:	5bc00015 	stw	r15,0(r11)
 4020dcc:	4b800015 	stw	r14,0(r9)
 4020dd0:	18c00404 	addi	r3,r3,16
 4020dd4:	39c00404 	addi	r7,r7,16
 4020dd8:	42000404 	addi	r8,r8,16
 4020ddc:	6b400404 	addi	r13,r13,16
 4020de0:	63000404 	addi	r12,r12,16
 4020de4:	5ac00404 	addi	r11,r11,16
 4020de8:	52800404 	addi	r10,r10,16
 4020dec:	4a400404 	addi	r9,r9,16
 4020df0:	1c3fef1e 	bne	r3,r16,4020db0 <__flash_rwdata_start+0xffff0278>
 4020df4:	89c00044 	addi	r7,r17,1
 4020df8:	380e913a 	slli	r7,r7,4
 4020dfc:	310003cc 	andi	r4,r6,15
 4020e00:	02c000c4 	movi	r11,3
 4020e04:	11c7883a 	add	r3,r2,r7
 4020e08:	29cb883a 	add	r5,r5,r7
 4020e0c:	5900212e 	bgeu	r11,r4,4020e94 <memcpy+0x140>
 4020e10:	1813883a 	mov	r9,r3
 4020e14:	2811883a 	mov	r8,r5
 4020e18:	200f883a 	mov	r7,r4
 4020e1c:	42800017 	ldw	r10,0(r8)
 4020e20:	4a400104 	addi	r9,r9,4
 4020e24:	39ffff04 	addi	r7,r7,-4
 4020e28:	4abfff15 	stw	r10,-4(r9)
 4020e2c:	42000104 	addi	r8,r8,4
 4020e30:	59fffa36 	bltu	r11,r7,4020e1c <__flash_rwdata_start+0xffff02e4>
 4020e34:	213fff04 	addi	r4,r4,-4
 4020e38:	2008d0ba 	srli	r4,r4,2
 4020e3c:	318000cc 	andi	r6,r6,3
 4020e40:	21000044 	addi	r4,r4,1
 4020e44:	2109883a 	add	r4,r4,r4
 4020e48:	2109883a 	add	r4,r4,r4
 4020e4c:	1907883a 	add	r3,r3,r4
 4020e50:	290b883a 	add	r5,r5,r4
 4020e54:	30000626 	beq	r6,zero,4020e70 <memcpy+0x11c>
 4020e58:	198d883a 	add	r6,r3,r6
 4020e5c:	29c00003 	ldbu	r7,0(r5)
 4020e60:	18c00044 	addi	r3,r3,1
 4020e64:	29400044 	addi	r5,r5,1
 4020e68:	19ffffc5 	stb	r7,-1(r3)
 4020e6c:	19bffb1e 	bne	r3,r6,4020e5c <__flash_rwdata_start+0xffff0324>
 4020e70:	dfc00217 	ldw	ra,8(sp)
 4020e74:	dc400117 	ldw	r17,4(sp)
 4020e78:	dc000017 	ldw	r16,0(sp)
 4020e7c:	dec00304 	addi	sp,sp,12
 4020e80:	f800283a 	ret
 4020e84:	2007883a 	mov	r3,r4
 4020e88:	003ff206 	br	4020e54 <__flash_rwdata_start+0xffff031c>
 4020e8c:	2007883a 	mov	r3,r4
 4020e90:	003ff106 	br	4020e58 <__flash_rwdata_start+0xffff0320>
 4020e94:	200d883a 	mov	r6,r4
 4020e98:	003fee06 	br	4020e54 <__flash_rwdata_start+0xffff031c>

04020e9c <_printf_r>:
 4020e9c:	defffd04 	addi	sp,sp,-12
 4020ea0:	2805883a 	mov	r2,r5
 4020ea4:	dfc00015 	stw	ra,0(sp)
 4020ea8:	d9800115 	stw	r6,4(sp)
 4020eac:	d9c00215 	stw	r7,8(sp)
 4020eb0:	21400217 	ldw	r5,8(r4)
 4020eb4:	d9c00104 	addi	r7,sp,4
 4020eb8:	100d883a 	mov	r6,r2
 4020ebc:	40211100 	call	4021110 <___vfprintf_internal_r>
 4020ec0:	dfc00017 	ldw	ra,0(sp)
 4020ec4:	dec00304 	addi	sp,sp,12
 4020ec8:	f800283a 	ret

04020ecc <printf>:
 4020ecc:	defffc04 	addi	sp,sp,-16
 4020ed0:	dfc00015 	stw	ra,0(sp)
 4020ed4:	d9400115 	stw	r5,4(sp)
 4020ed8:	d9800215 	stw	r6,8(sp)
 4020edc:	d9c00315 	stw	r7,12(sp)
 4020ee0:	00800034 	movhi	r2,0
 4020ee4:	1087bd04 	addi	r2,r2,7924
 4020ee8:	10800017 	ldw	r2,0(r2)
 4020eec:	200b883a 	mov	r5,r4
 4020ef0:	d9800104 	addi	r6,sp,4
 4020ef4:	11000217 	ldw	r4,8(r2)
 4020ef8:	40233ec0 	call	40233ec <__vfprintf_internal>
 4020efc:	dfc00017 	ldw	ra,0(sp)
 4020f00:	dec00404 	addi	sp,sp,16
 4020f04:	f800283a 	ret

04020f08 <_putchar_r>:
 4020f08:	21800217 	ldw	r6,8(r4)
 4020f0c:	4027e681 	jmpi	4027e68 <_putc_r>

04020f10 <putchar>:
 4020f10:	00800034 	movhi	r2,0
 4020f14:	1087bd04 	addi	r2,r2,7924
 4020f18:	200b883a 	mov	r5,r4
 4020f1c:	11000017 	ldw	r4,0(r2)
 4020f20:	21800217 	ldw	r6,8(r4)
 4020f24:	4027e681 	jmpi	4027e68 <_putc_r>

04020f28 <_puts_r>:
 4020f28:	defff604 	addi	sp,sp,-40
 4020f2c:	dc000715 	stw	r16,28(sp)
 4020f30:	2021883a 	mov	r16,r4
 4020f34:	2809883a 	mov	r4,r5
 4020f38:	dc400815 	stw	r17,32(sp)
 4020f3c:	dfc00915 	stw	ra,36(sp)
 4020f40:	2823883a 	mov	r17,r5
 4020f44:	40210780 	call	4021078 <strlen>
 4020f48:	10c00044 	addi	r3,r2,1
 4020f4c:	d8800115 	stw	r2,4(sp)
 4020f50:	00800034 	movhi	r2,0
 4020f54:	10805304 	addi	r2,r2,332
 4020f58:	d8800215 	stw	r2,8(sp)
 4020f5c:	00800044 	movi	r2,1
 4020f60:	d8800315 	stw	r2,12(sp)
 4020f64:	00800084 	movi	r2,2
 4020f68:	dc400015 	stw	r17,0(sp)
 4020f6c:	d8c00615 	stw	r3,24(sp)
 4020f70:	dec00415 	stw	sp,16(sp)
 4020f74:	d8800515 	stw	r2,20(sp)
 4020f78:	80000226 	beq	r16,zero,4020f84 <_puts_r+0x5c>
 4020f7c:	80800e17 	ldw	r2,56(r16)
 4020f80:	10001426 	beq	r2,zero,4020fd4 <_puts_r+0xac>
 4020f84:	81400217 	ldw	r5,8(r16)
 4020f88:	2880030b 	ldhu	r2,12(r5)
 4020f8c:	10c8000c 	andi	r3,r2,8192
 4020f90:	1800061e 	bne	r3,zero,4020fac <_puts_r+0x84>
 4020f94:	29001917 	ldw	r4,100(r5)
 4020f98:	00f7ffc4 	movi	r3,-8193
 4020f9c:	10880014 	ori	r2,r2,8192
 4020fa0:	20c6703a 	and	r3,r4,r3
 4020fa4:	2880030d 	sth	r2,12(r5)
 4020fa8:	28c01915 	stw	r3,100(r5)
 4020fac:	d9800404 	addi	r6,sp,16
 4020fb0:	8009883a 	mov	r4,r16
 4020fb4:	40259540 	call	4025954 <__sfvwrite_r>
 4020fb8:	1000091e 	bne	r2,zero,4020fe0 <_puts_r+0xb8>
 4020fbc:	00800284 	movi	r2,10
 4020fc0:	dfc00917 	ldw	ra,36(sp)
 4020fc4:	dc400817 	ldw	r17,32(sp)
 4020fc8:	dc000717 	ldw	r16,28(sp)
 4020fcc:	dec00a04 	addi	sp,sp,40
 4020fd0:	f800283a 	ret
 4020fd4:	8009883a 	mov	r4,r16
 4020fd8:	40254d00 	call	40254d0 <__sinit>
 4020fdc:	003fe906 	br	4020f84 <__flash_rwdata_start+0xffff044c>
 4020fe0:	00bfffc4 	movi	r2,-1
 4020fe4:	003ff606 	br	4020fc0 <__flash_rwdata_start+0xffff0488>

04020fe8 <puts>:
 4020fe8:	00800034 	movhi	r2,0
 4020fec:	1087bd04 	addi	r2,r2,7924
 4020ff0:	200b883a 	mov	r5,r4
 4020ff4:	11000017 	ldw	r4,0(r2)
 4020ff8:	4020f281 	jmpi	4020f28 <_puts_r>

04020ffc <srand>:
 4020ffc:	00800034 	movhi	r2,0
 4021000:	1087bd04 	addi	r2,r2,7924
 4021004:	10800017 	ldw	r2,0(r2)
 4021008:	11002915 	stw	r4,164(r2)
 402100c:	10002a15 	stw	zero,168(r2)
 4021010:	f800283a 	ret

04021014 <rand>:
 4021014:	00800034 	movhi	r2,0
 4021018:	defffe04 	addi	sp,sp,-8
 402101c:	1087bd04 	addi	r2,r2,7924
 4021020:	dc000015 	stw	r16,0(sp)
 4021024:	14000017 	ldw	r16,0(r2)
 4021028:	dfc00115 	stw	ra,4(sp)
 402102c:	01932574 	movhi	r6,19605
 4021030:	81002917 	ldw	r4,164(r16)
 4021034:	81402a17 	ldw	r5,168(r16)
 4021038:	01d614b4 	movhi	r7,22610
 402103c:	319fcb44 	addi	r6,r6,32557
 4021040:	39fd0b44 	addi	r7,r7,-3027
 4021044:	402a8580 	call	402a858 <__muldi3>
 4021048:	11000044 	addi	r4,r2,1
 402104c:	2085803a 	cmpltu	r2,r4,r2
 4021050:	10c7883a 	add	r3,r2,r3
 4021054:	00a00034 	movhi	r2,32768
 4021058:	10bfffc4 	addi	r2,r2,-1
 402105c:	1884703a 	and	r2,r3,r2
 4021060:	81002915 	stw	r4,164(r16)
 4021064:	80c02a15 	stw	r3,168(r16)
 4021068:	dfc00117 	ldw	ra,4(sp)
 402106c:	dc000017 	ldw	r16,0(sp)
 4021070:	dec00204 	addi	sp,sp,8
 4021074:	f800283a 	ret

04021078 <strlen>:
 4021078:	208000cc 	andi	r2,r4,3
 402107c:	10002026 	beq	r2,zero,4021100 <strlen+0x88>
 4021080:	20800007 	ldb	r2,0(r4)
 4021084:	10002026 	beq	r2,zero,4021108 <strlen+0x90>
 4021088:	2005883a 	mov	r2,r4
 402108c:	00000206 	br	4021098 <strlen+0x20>
 4021090:	10c00007 	ldb	r3,0(r2)
 4021094:	18001826 	beq	r3,zero,40210f8 <strlen+0x80>
 4021098:	10800044 	addi	r2,r2,1
 402109c:	10c000cc 	andi	r3,r2,3
 40210a0:	183ffb1e 	bne	r3,zero,4021090 <__flash_rwdata_start+0xffff0558>
 40210a4:	10c00017 	ldw	r3,0(r2)
 40210a8:	01ffbff4 	movhi	r7,65279
 40210ac:	39ffbfc4 	addi	r7,r7,-257
 40210b0:	00ca303a 	nor	r5,zero,r3
 40210b4:	01a02074 	movhi	r6,32897
 40210b8:	19c7883a 	add	r3,r3,r7
 40210bc:	31a02004 	addi	r6,r6,-32640
 40210c0:	1946703a 	and	r3,r3,r5
 40210c4:	1986703a 	and	r3,r3,r6
 40210c8:	1800091e 	bne	r3,zero,40210f0 <strlen+0x78>
 40210cc:	10800104 	addi	r2,r2,4
 40210d0:	10c00017 	ldw	r3,0(r2)
 40210d4:	19cb883a 	add	r5,r3,r7
 40210d8:	00c6303a 	nor	r3,zero,r3
 40210dc:	28c6703a 	and	r3,r5,r3
 40210e0:	1986703a 	and	r3,r3,r6
 40210e4:	183ff926 	beq	r3,zero,40210cc <__flash_rwdata_start+0xffff0594>
 40210e8:	00000106 	br	40210f0 <strlen+0x78>
 40210ec:	10800044 	addi	r2,r2,1
 40210f0:	10c00007 	ldb	r3,0(r2)
 40210f4:	183ffd1e 	bne	r3,zero,40210ec <__flash_rwdata_start+0xffff05b4>
 40210f8:	1105c83a 	sub	r2,r2,r4
 40210fc:	f800283a 	ret
 4021100:	2005883a 	mov	r2,r4
 4021104:	003fe706 	br	40210a4 <__flash_rwdata_start+0xffff056c>
 4021108:	0005883a 	mov	r2,zero
 402110c:	f800283a 	ret

04021110 <___vfprintf_internal_r>:
 4021110:	deffb804 	addi	sp,sp,-288
 4021114:	dfc04715 	stw	ra,284(sp)
 4021118:	ddc04515 	stw	r23,276(sp)
 402111c:	dd404315 	stw	r21,268(sp)
 4021120:	d9002d15 	stw	r4,180(sp)
 4021124:	282f883a 	mov	r23,r5
 4021128:	302b883a 	mov	r21,r6
 402112c:	d9c02e15 	stw	r7,184(sp)
 4021130:	df004615 	stw	fp,280(sp)
 4021134:	dd804415 	stw	r22,272(sp)
 4021138:	dd004215 	stw	r20,264(sp)
 402113c:	dcc04115 	stw	r19,260(sp)
 4021140:	dc804015 	stw	r18,256(sp)
 4021144:	dc403f15 	stw	r17,252(sp)
 4021148:	dc003e15 	stw	r16,248(sp)
 402114c:	40260500 	call	4026050 <_localeconv_r>
 4021150:	10800017 	ldw	r2,0(r2)
 4021154:	1009883a 	mov	r4,r2
 4021158:	d8803415 	stw	r2,208(sp)
 402115c:	40210780 	call	4021078 <strlen>
 4021160:	d8803715 	stw	r2,220(sp)
 4021164:	d8802d17 	ldw	r2,180(sp)
 4021168:	10000226 	beq	r2,zero,4021174 <___vfprintf_internal_r+0x64>
 402116c:	10800e17 	ldw	r2,56(r2)
 4021170:	1000fb26 	beq	r2,zero,4021560 <___vfprintf_internal_r+0x450>
 4021174:	b880030b 	ldhu	r2,12(r23)
 4021178:	10c8000c 	andi	r3,r2,8192
 402117c:	1800061e 	bne	r3,zero,4021198 <___vfprintf_internal_r+0x88>
 4021180:	b9001917 	ldw	r4,100(r23)
 4021184:	00f7ffc4 	movi	r3,-8193
 4021188:	10880014 	ori	r2,r2,8192
 402118c:	20c6703a 	and	r3,r4,r3
 4021190:	b880030d 	sth	r2,12(r23)
 4021194:	b8c01915 	stw	r3,100(r23)
 4021198:	10c0020c 	andi	r3,r2,8
 402119c:	1800c326 	beq	r3,zero,40214ac <___vfprintf_internal_r+0x39c>
 40211a0:	b8c00417 	ldw	r3,16(r23)
 40211a4:	1800c126 	beq	r3,zero,40214ac <___vfprintf_internal_r+0x39c>
 40211a8:	1080068c 	andi	r2,r2,26
 40211ac:	00c00284 	movi	r3,10
 40211b0:	10c0c626 	beq	r2,r3,40214cc <___vfprintf_internal_r+0x3bc>
 40211b4:	d8c00404 	addi	r3,sp,16
 40211b8:	05000034 	movhi	r20,0
 40211bc:	d9001e04 	addi	r4,sp,120
 40211c0:	a5006484 	addi	r20,r20,402
 40211c4:	d8c01e15 	stw	r3,120(sp)
 40211c8:	d8002015 	stw	zero,128(sp)
 40211cc:	d8001f15 	stw	zero,124(sp)
 40211d0:	d8003315 	stw	zero,204(sp)
 40211d4:	d8003615 	stw	zero,216(sp)
 40211d8:	d8003815 	stw	zero,224(sp)
 40211dc:	1811883a 	mov	r8,r3
 40211e0:	d8003915 	stw	zero,228(sp)
 40211e4:	d8003a15 	stw	zero,232(sp)
 40211e8:	d8002f15 	stw	zero,188(sp)
 40211ec:	d9002815 	stw	r4,160(sp)
 40211f0:	a8800007 	ldb	r2,0(r21)
 40211f4:	10028b26 	beq	r2,zero,4021c24 <___vfprintf_internal_r+0xb14>
 40211f8:	00c00944 	movi	r3,37
 40211fc:	a823883a 	mov	r17,r21
 4021200:	10c0021e 	bne	r2,r3,402120c <___vfprintf_internal_r+0xfc>
 4021204:	00001406 	br	4021258 <___vfprintf_internal_r+0x148>
 4021208:	10c00326 	beq	r2,r3,4021218 <___vfprintf_internal_r+0x108>
 402120c:	8c400044 	addi	r17,r17,1
 4021210:	88800007 	ldb	r2,0(r17)
 4021214:	103ffc1e 	bne	r2,zero,4021208 <__flash_rwdata_start+0xffff06d0>
 4021218:	8d61c83a 	sub	r16,r17,r21
 402121c:	80000e26 	beq	r16,zero,4021258 <___vfprintf_internal_r+0x148>
 4021220:	d8c02017 	ldw	r3,128(sp)
 4021224:	d8801f17 	ldw	r2,124(sp)
 4021228:	45400015 	stw	r21,0(r8)
 402122c:	1c07883a 	add	r3,r3,r16
 4021230:	10800044 	addi	r2,r2,1
 4021234:	d8c02015 	stw	r3,128(sp)
 4021238:	44000115 	stw	r16,4(r8)
 402123c:	d8801f15 	stw	r2,124(sp)
 4021240:	00c001c4 	movi	r3,7
 4021244:	1880a916 	blt	r3,r2,40214ec <___vfprintf_internal_r+0x3dc>
 4021248:	42000204 	addi	r8,r8,8
 402124c:	d9402f17 	ldw	r5,188(sp)
 4021250:	2c0b883a 	add	r5,r5,r16
 4021254:	d9402f15 	stw	r5,188(sp)
 4021258:	88800007 	ldb	r2,0(r17)
 402125c:	1000aa26 	beq	r2,zero,4021508 <___vfprintf_internal_r+0x3f8>
 4021260:	8d400044 	addi	r21,r17,1
 4021264:	8c400047 	ldb	r17,1(r17)
 4021268:	0021883a 	mov	r16,zero
 402126c:	00bfffc4 	movi	r2,-1
 4021270:	0025883a 	mov	r18,zero
 4021274:	dc002905 	stb	r16,164(sp)
 4021278:	d8002785 	stb	zero,158(sp)
 402127c:	d8002b05 	stb	zero,172(sp)
 4021280:	d8802a15 	stw	r2,168(sp)
 4021284:	d8003115 	stw	zero,196(sp)
 4021288:	04c01604 	movi	r19,88
 402128c:	05800244 	movi	r22,9
 4021290:	9021883a 	mov	r16,r18
 4021294:	4039883a 	mov	fp,r8
 4021298:	ad400044 	addi	r21,r21,1
 402129c:	88bff804 	addi	r2,r17,-32
 40212a0:	98833236 	bltu	r19,r2,4021f6c <___vfprintf_internal_r+0xe5c>
 40212a4:	100490ba 	slli	r2,r2,2
 40212a8:	00c100b4 	movhi	r3,1026
 40212ac:	18c4af04 	addi	r3,r3,4796
 40212b0:	10c5883a 	add	r2,r2,r3
 40212b4:	10800017 	ldw	r2,0(r2)
 40212b8:	1000683a 	jmp	r2
 40212bc:	04021e64 	muli	r16,zero,2169
 40212c0:	04021f6c 	andhi	r16,zero,2173
 40212c4:	04021f6c 	andhi	r16,zero,2173
 40212c8:	04021e84 	movi	r16,2170
 40212cc:	04021f6c 	andhi	r16,zero,2173
 40212d0:	04021f6c 	andhi	r16,zero,2173
 40212d4:	04021f6c 	andhi	r16,zero,2173
 40212d8:	04021f6c 	andhi	r16,zero,2173
 40212dc:	04021f6c 	andhi	r16,zero,2173
 40212e0:	04021f6c 	andhi	r16,zero,2173
 40212e4:	0402156c 	andhi	r16,zero,2133
 40212e8:	04021d74 	movhi	r16,2165
 40212ec:	04021f6c 	andhi	r16,zero,2173
 40212f0:	04021430 	cmpltui	r16,zero,2128
 40212f4:	04021590 	cmplti	r16,zero,2134
 40212f8:	04021f6c 	andhi	r16,zero,2173
 40212fc:	040215e0 	cmpeqi	r16,zero,2135
 4021300:	040215ec 	andhi	r16,zero,2135
 4021304:	040215ec 	andhi	r16,zero,2135
 4021308:	040215ec 	andhi	r16,zero,2135
 402130c:	040215ec 	andhi	r16,zero,2135
 4021310:	040215ec 	andhi	r16,zero,2135
 4021314:	040215ec 	andhi	r16,zero,2135
 4021318:	040215ec 	andhi	r16,zero,2135
 402131c:	040215ec 	andhi	r16,zero,2135
 4021320:	040215ec 	andhi	r16,zero,2135
 4021324:	04021f6c 	andhi	r16,zero,2173
 4021328:	04021f6c 	andhi	r16,zero,2173
 402132c:	04021f6c 	andhi	r16,zero,2173
 4021330:	04021f6c 	andhi	r16,zero,2173
 4021334:	04021f6c 	andhi	r16,zero,2173
 4021338:	04021f6c 	andhi	r16,zero,2173
 402133c:	04021f6c 	andhi	r16,zero,2173
 4021340:	04021f6c 	andhi	r16,zero,2173
 4021344:	04021f6c 	andhi	r16,zero,2173
 4021348:	04021f6c 	andhi	r16,zero,2173
 402134c:	04021628 	cmpgeui	r16,zero,2136
 4021350:	040216f0 	cmpltui	r16,zero,2139
 4021354:	04021f6c 	andhi	r16,zero,2173
 4021358:	040216f0 	cmpltui	r16,zero,2139
 402135c:	04021f6c 	andhi	r16,zero,2173
 4021360:	04021f6c 	andhi	r16,zero,2173
 4021364:	04021f6c 	andhi	r16,zero,2173
 4021368:	04021f6c 	andhi	r16,zero,2173
 402136c:	0402179c 	xori	r16,zero,2142
 4021370:	04021f6c 	andhi	r16,zero,2173
 4021374:	04021f6c 	andhi	r16,zero,2173
 4021378:	040217a8 	cmpgeui	r16,zero,2142
 402137c:	04021f6c 	andhi	r16,zero,2173
 4021380:	04021f6c 	andhi	r16,zero,2173
 4021384:	04021f6c 	andhi	r16,zero,2173
 4021388:	04021f6c 	andhi	r16,zero,2173
 402138c:	04021f6c 	andhi	r16,zero,2173
 4021390:	04021c2c 	andhi	r16,zero,2160
 4021394:	04021f6c 	andhi	r16,zero,2173
 4021398:	04021f6c 	andhi	r16,zero,2173
 402139c:	04021c98 	cmpnei	r16,zero,2162
 40213a0:	04021f6c 	andhi	r16,zero,2173
 40213a4:	04021f6c 	andhi	r16,zero,2173
 40213a8:	04021f6c 	andhi	r16,zero,2173
 40213ac:	04021f6c 	andhi	r16,zero,2173
 40213b0:	04021f6c 	andhi	r16,zero,2173
 40213b4:	04021f6c 	andhi	r16,zero,2173
 40213b8:	04021f6c 	andhi	r16,zero,2173
 40213bc:	04021f6c 	andhi	r16,zero,2173
 40213c0:	04021f6c 	andhi	r16,zero,2173
 40213c4:	04021f6c 	andhi	r16,zero,2173
 40213c8:	04021f10 	cmplti	r16,zero,2172
 40213cc:	04021e90 	cmplti	r16,zero,2170
 40213d0:	040216f0 	cmpltui	r16,zero,2139
 40213d4:	040216f0 	cmpltui	r16,zero,2139
 40213d8:	040216f0 	cmpltui	r16,zero,2139
 40213dc:	04021eb0 	cmpltui	r16,zero,2170
 40213e0:	04021e90 	cmplti	r16,zero,2170
 40213e4:	04021f6c 	andhi	r16,zero,2173
 40213e8:	04021f6c 	andhi	r16,zero,2173
 40213ec:	04021ebc 	xorhi	r16,zero,2170
 40213f0:	04021f6c 	andhi	r16,zero,2173
 40213f4:	04021ed0 	cmplti	r16,zero,2171
 40213f8:	04021d54 	movui	r16,2165
 40213fc:	0402143c 	xorhi	r16,zero,2128
 4021400:	04021d8c 	andi	r16,zero,2166
 4021404:	04021f6c 	andhi	r16,zero,2173
 4021408:	04021d98 	cmpnei	r16,zero,2166
 402140c:	04021f6c 	andhi	r16,zero,2173
 4021410:	04021dfc 	xorhi	r16,zero,2167
 4021414:	04021f6c 	andhi	r16,zero,2173
 4021418:	04021f6c 	andhi	r16,zero,2173
 402141c:	04021e1c 	xori	r16,zero,2168
 4021420:	d8c03117 	ldw	r3,196(sp)
 4021424:	d8802e15 	stw	r2,184(sp)
 4021428:	00c7c83a 	sub	r3,zero,r3
 402142c:	d8c03115 	stw	r3,196(sp)
 4021430:	84000114 	ori	r16,r16,4
 4021434:	ac400007 	ldb	r17,0(r21)
 4021438:	003f9706 	br	4021298 <__flash_rwdata_start+0xffff0760>
 402143c:	00800c04 	movi	r2,48
 4021440:	d8802705 	stb	r2,156(sp)
 4021444:	00801e04 	movi	r2,120
 4021448:	d8802745 	stb	r2,157(sp)
 402144c:	d9002a17 	ldw	r4,168(sp)
 4021450:	d8802e17 	ldw	r2,184(sp)
 4021454:	d8002785 	stb	zero,158(sp)
 4021458:	e011883a 	mov	r8,fp
 402145c:	10c00104 	addi	r3,r2,4
 4021460:	14c00017 	ldw	r19,0(r2)
 4021464:	002d883a 	mov	r22,zero
 4021468:	80800094 	ori	r2,r16,2
 402146c:	2002ca16 	blt	r4,zero,4021f98 <___vfprintf_internal_r+0xe88>
 4021470:	00bfdfc4 	movi	r2,-129
 4021474:	80a4703a 	and	r18,r16,r2
 4021478:	d8c02e15 	stw	r3,184(sp)
 402147c:	94800094 	ori	r18,r18,2
 4021480:	9802b41e 	bne	r19,zero,4021f54 <___vfprintf_internal_r+0xe44>
 4021484:	01400034 	movhi	r5,0
 4021488:	29405d04 	addi	r5,r5,372
 402148c:	d9403915 	stw	r5,228(sp)
 4021490:	04401e04 	movi	r17,120
 4021494:	d8802a17 	ldw	r2,168(sp)
 4021498:	0039883a 	mov	fp,zero
 402149c:	1001fa26 	beq	r2,zero,4021c88 <___vfprintf_internal_r+0xb78>
 40214a0:	0027883a 	mov	r19,zero
 40214a4:	002d883a 	mov	r22,zero
 40214a8:	00021906 	br	4021d10 <___vfprintf_internal_r+0xc00>
 40214ac:	d9002d17 	ldw	r4,180(sp)
 40214b0:	b80b883a 	mov	r5,r23
 40214b4:	40234c40 	call	40234c4 <__swsetup_r>
 40214b8:	1005dc1e 	bne	r2,zero,4022c2c <___vfprintf_internal_r+0x1b1c>
 40214bc:	b880030b 	ldhu	r2,12(r23)
 40214c0:	00c00284 	movi	r3,10
 40214c4:	1080068c 	andi	r2,r2,26
 40214c8:	10ff3a1e 	bne	r2,r3,40211b4 <__flash_rwdata_start+0xffff067c>
 40214cc:	b880038f 	ldh	r2,14(r23)
 40214d0:	103f3816 	blt	r2,zero,40211b4 <__flash_rwdata_start+0xffff067c>
 40214d4:	d9c02e17 	ldw	r7,184(sp)
 40214d8:	d9002d17 	ldw	r4,180(sp)
 40214dc:	a80d883a 	mov	r6,r21
 40214e0:	b80b883a 	mov	r5,r23
 40214e4:	40234080 	call	4023408 <__sbprintf>
 40214e8:	00001106 	br	4021530 <___vfprintf_internal_r+0x420>
 40214ec:	d9002d17 	ldw	r4,180(sp)
 40214f0:	d9801e04 	addi	r6,sp,120
 40214f4:	b80b883a 	mov	r5,r23
 40214f8:	40289100 	call	4028910 <__sprint_r>
 40214fc:	1000081e 	bne	r2,zero,4021520 <___vfprintf_internal_r+0x410>
 4021500:	da000404 	addi	r8,sp,16
 4021504:	003f5106 	br	402124c <__flash_rwdata_start+0xffff0714>
 4021508:	d8802017 	ldw	r2,128(sp)
 402150c:	10000426 	beq	r2,zero,4021520 <___vfprintf_internal_r+0x410>
 4021510:	d9002d17 	ldw	r4,180(sp)
 4021514:	d9801e04 	addi	r6,sp,120
 4021518:	b80b883a 	mov	r5,r23
 402151c:	40289100 	call	4028910 <__sprint_r>
 4021520:	b880030b 	ldhu	r2,12(r23)
 4021524:	1080100c 	andi	r2,r2,64
 4021528:	1005c01e 	bne	r2,zero,4022c2c <___vfprintf_internal_r+0x1b1c>
 402152c:	d8802f17 	ldw	r2,188(sp)
 4021530:	dfc04717 	ldw	ra,284(sp)
 4021534:	df004617 	ldw	fp,280(sp)
 4021538:	ddc04517 	ldw	r23,276(sp)
 402153c:	dd804417 	ldw	r22,272(sp)
 4021540:	dd404317 	ldw	r21,268(sp)
 4021544:	dd004217 	ldw	r20,264(sp)
 4021548:	dcc04117 	ldw	r19,260(sp)
 402154c:	dc804017 	ldw	r18,256(sp)
 4021550:	dc403f17 	ldw	r17,252(sp)
 4021554:	dc003e17 	ldw	r16,248(sp)
 4021558:	dec04804 	addi	sp,sp,288
 402155c:	f800283a 	ret
 4021560:	d9002d17 	ldw	r4,180(sp)
 4021564:	40254d00 	call	40254d0 <__sinit>
 4021568:	003f0206 	br	4021174 <__flash_rwdata_start+0xffff063c>
 402156c:	d9002e17 	ldw	r4,184(sp)
 4021570:	d9402e17 	ldw	r5,184(sp)
 4021574:	21000017 	ldw	r4,0(r4)
 4021578:	28800104 	addi	r2,r5,4
 402157c:	d9003115 	stw	r4,196(sp)
 4021580:	203fa716 	blt	r4,zero,4021420 <__flash_rwdata_start+0xffff08e8>
 4021584:	d8802e15 	stw	r2,184(sp)
 4021588:	ac400007 	ldb	r17,0(r21)
 402158c:	003f4206 	br	4021298 <__flash_rwdata_start+0xffff0760>
 4021590:	ac400007 	ldb	r17,0(r21)
 4021594:	01000a84 	movi	r4,42
 4021598:	a8c00044 	addi	r3,r21,1
 402159c:	89075826 	beq	r17,r4,4023300 <___vfprintf_internal_r+0x21f0>
 40215a0:	8cbff404 	addi	r18,r17,-48
 40215a4:	b486ae36 	bltu	r22,r18,4023060 <___vfprintf_internal_r+0x1f50>
 40215a8:	0009883a 	mov	r4,zero
 40215ac:	1823883a 	mov	r17,r3
 40215b0:	01400284 	movi	r5,10
 40215b4:	4020d2c0 	call	4020d2c <__mulsi3>
 40215b8:	88c00007 	ldb	r3,0(r17)
 40215bc:	1489883a 	add	r4,r2,r18
 40215c0:	8d400044 	addi	r21,r17,1
 40215c4:	1cbff404 	addi	r18,r3,-48
 40215c8:	a823883a 	mov	r17,r21
 40215cc:	b4bff82e 	bgeu	r22,r18,40215b0 <__flash_rwdata_start+0xffff0a78>
 40215d0:	1823883a 	mov	r17,r3
 40215d4:	2005f616 	blt	r4,zero,4022db0 <___vfprintf_internal_r+0x1ca0>
 40215d8:	d9002a15 	stw	r4,168(sp)
 40215dc:	003f2f06 	br	402129c <__flash_rwdata_start+0xffff0764>
 40215e0:	84002014 	ori	r16,r16,128
 40215e4:	ac400007 	ldb	r17,0(r21)
 40215e8:	003f2b06 	br	4021298 <__flash_rwdata_start+0xffff0760>
 40215ec:	8cbff404 	addi	r18,r17,-48
 40215f0:	d8003115 	stw	zero,196(sp)
 40215f4:	0009883a 	mov	r4,zero
 40215f8:	a823883a 	mov	r17,r21
 40215fc:	01400284 	movi	r5,10
 4021600:	4020d2c0 	call	4020d2c <__mulsi3>
 4021604:	88c00007 	ldb	r3,0(r17)
 4021608:	9089883a 	add	r4,r18,r2
 402160c:	ad400044 	addi	r21,r21,1
 4021610:	1cbff404 	addi	r18,r3,-48
 4021614:	a823883a 	mov	r17,r21
 4021618:	b4bff82e 	bgeu	r22,r18,40215fc <__flash_rwdata_start+0xffff0ac4>
 402161c:	1823883a 	mov	r17,r3
 4021620:	d9003115 	stw	r4,196(sp)
 4021624:	003f1d06 	br	402129c <__flash_rwdata_start+0xffff0764>
 4021628:	8025883a 	mov	r18,r16
 402162c:	dc002903 	ldbu	r16,164(sp)
 4021630:	e011883a 	mov	r8,fp
 4021634:	84003fcc 	andi	r16,r16,255
 4021638:	8007531e 	bne	r16,zero,4023388 <___vfprintf_internal_r+0x2278>
 402163c:	94800414 	ori	r18,r18,16
 4021640:	9080080c 	andi	r2,r18,32
 4021644:	1003a326 	beq	r2,zero,40224d4 <___vfprintf_internal_r+0x13c4>
 4021648:	d9002e17 	ldw	r4,184(sp)
 402164c:	20800117 	ldw	r2,4(r4)
 4021650:	24c00017 	ldw	r19,0(r4)
 4021654:	21000204 	addi	r4,r4,8
 4021658:	d9002e15 	stw	r4,184(sp)
 402165c:	102d883a 	mov	r22,r2
 4021660:	10047316 	blt	r2,zero,4022830 <___vfprintf_internal_r+0x1720>
 4021664:	d9002a17 	ldw	r4,168(sp)
 4021668:	df002783 	ldbu	fp,158(sp)
 402166c:	2003e416 	blt	r4,zero,4022600 <___vfprintf_internal_r+0x14f0>
 4021670:	00ffdfc4 	movi	r3,-129
 4021674:	9d84b03a 	or	r2,r19,r22
 4021678:	90e4703a 	and	r18,r18,r3
 402167c:	10018026 	beq	r2,zero,4021c80 <___vfprintf_internal_r+0xb70>
 4021680:	b003ab26 	beq	r22,zero,4022530 <___vfprintf_internal_r+0x1420>
 4021684:	dc402915 	stw	r17,164(sp)
 4021688:	dc001e04 	addi	r16,sp,120
 402168c:	b023883a 	mov	r17,r22
 4021690:	402d883a 	mov	r22,r8
 4021694:	9809883a 	mov	r4,r19
 4021698:	880b883a 	mov	r5,r17
 402169c:	01800284 	movi	r6,10
 40216a0:	000f883a 	mov	r7,zero
 40216a4:	402af600 	call	402af60 <__umoddi3>
 40216a8:	10800c04 	addi	r2,r2,48
 40216ac:	843fffc4 	addi	r16,r16,-1
 40216b0:	9809883a 	mov	r4,r19
 40216b4:	880b883a 	mov	r5,r17
 40216b8:	80800005 	stb	r2,0(r16)
 40216bc:	01800284 	movi	r6,10
 40216c0:	000f883a 	mov	r7,zero
 40216c4:	402a9640 	call	402a964 <__udivdi3>
 40216c8:	1027883a 	mov	r19,r2
 40216cc:	10c4b03a 	or	r2,r2,r3
 40216d0:	1823883a 	mov	r17,r3
 40216d4:	103fef1e 	bne	r2,zero,4021694 <__flash_rwdata_start+0xffff0b5c>
 40216d8:	d8c02817 	ldw	r3,160(sp)
 40216dc:	dc402917 	ldw	r17,164(sp)
 40216e0:	b011883a 	mov	r8,r22
 40216e4:	1c07c83a 	sub	r3,r3,r16
 40216e8:	d8c02b15 	stw	r3,172(sp)
 40216ec:	00005f06 	br	402186c <___vfprintf_internal_r+0x75c>
 40216f0:	8025883a 	mov	r18,r16
 40216f4:	dc002903 	ldbu	r16,164(sp)
 40216f8:	e011883a 	mov	r8,fp
 40216fc:	84003fcc 	andi	r16,r16,255
 4021700:	80071e1e 	bne	r16,zero,402337c <___vfprintf_internal_r+0x226c>
 4021704:	9080020c 	andi	r2,r18,8
 4021708:	1004af26 	beq	r2,zero,40229c8 <___vfprintf_internal_r+0x18b8>
 402170c:	d9002e17 	ldw	r4,184(sp)
 4021710:	d9402e17 	ldw	r5,184(sp)
 4021714:	d8802e17 	ldw	r2,184(sp)
 4021718:	21000017 	ldw	r4,0(r4)
 402171c:	29400117 	ldw	r5,4(r5)
 4021720:	10800204 	addi	r2,r2,8
 4021724:	d9003615 	stw	r4,216(sp)
 4021728:	d9403815 	stw	r5,224(sp)
 402172c:	d8802e15 	stw	r2,184(sp)
 4021730:	d9003617 	ldw	r4,216(sp)
 4021734:	d9403817 	ldw	r5,224(sp)
 4021738:	da003d15 	stw	r8,244(sp)
 402173c:	04000044 	movi	r16,1
 4021740:	40285340 	call	4028534 <__fpclassifyd>
 4021744:	da003d17 	ldw	r8,244(sp)
 4021748:	1404441e 	bne	r2,r16,402285c <___vfprintf_internal_r+0x174c>
 402174c:	d9003617 	ldw	r4,216(sp)
 4021750:	d9403817 	ldw	r5,224(sp)
 4021754:	000d883a 	mov	r6,zero
 4021758:	000f883a 	mov	r7,zero
 402175c:	402c9040 	call	402c904 <__ledf2>
 4021760:	da003d17 	ldw	r8,244(sp)
 4021764:	1005e316 	blt	r2,zero,4022ef4 <___vfprintf_internal_r+0x1de4>
 4021768:	df002783 	ldbu	fp,158(sp)
 402176c:	008011c4 	movi	r2,71
 4021770:	1445580e 	bge	r2,r17,4022cd4 <___vfprintf_internal_r+0x1bc4>
 4021774:	04000034 	movhi	r16,0
 4021778:	84005504 	addi	r16,r16,340
 402177c:	00c000c4 	movi	r3,3
 4021780:	00bfdfc4 	movi	r2,-129
 4021784:	d8c02915 	stw	r3,164(sp)
 4021788:	90a4703a 	and	r18,r18,r2
 402178c:	d8c02b15 	stw	r3,172(sp)
 4021790:	d8002a15 	stw	zero,168(sp)
 4021794:	d8003215 	stw	zero,200(sp)
 4021798:	00003a06 	br	4021884 <___vfprintf_internal_r+0x774>
 402179c:	84000214 	ori	r16,r16,8
 40217a0:	ac400007 	ldb	r17,0(r21)
 40217a4:	003ebc06 	br	4021298 <__flash_rwdata_start+0xffff0760>
 40217a8:	8025883a 	mov	r18,r16
 40217ac:	dc002903 	ldbu	r16,164(sp)
 40217b0:	e011883a 	mov	r8,fp
 40217b4:	84003fcc 	andi	r16,r16,255
 40217b8:	8007001e 	bne	r16,zero,40233bc <___vfprintf_internal_r+0x22ac>
 40217bc:	94800414 	ori	r18,r18,16
 40217c0:	9080080c 	andi	r2,r18,32
 40217c4:	1002fa26 	beq	r2,zero,40223b0 <___vfprintf_internal_r+0x12a0>
 40217c8:	d9002e17 	ldw	r4,184(sp)
 40217cc:	d9402a17 	ldw	r5,168(sp)
 40217d0:	d8002785 	stb	zero,158(sp)
 40217d4:	20800204 	addi	r2,r4,8
 40217d8:	24c00017 	ldw	r19,0(r4)
 40217dc:	25800117 	ldw	r22,4(r4)
 40217e0:	2804b116 	blt	r5,zero,4022aa8 <___vfprintf_internal_r+0x1998>
 40217e4:	013fdfc4 	movi	r4,-129
 40217e8:	9d86b03a 	or	r3,r19,r22
 40217ec:	d8802e15 	stw	r2,184(sp)
 40217f0:	9124703a 	and	r18,r18,r4
 40217f4:	1802fb1e 	bne	r3,zero,40223e4 <___vfprintf_internal_r+0x12d4>
 40217f8:	d8c02a17 	ldw	r3,168(sp)
 40217fc:	0039883a 	mov	fp,zero
 4021800:	1805e526 	beq	r3,zero,4022f98 <___vfprintf_internal_r+0x1e88>
 4021804:	0027883a 	mov	r19,zero
 4021808:	002d883a 	mov	r22,zero
 402180c:	dc001e04 	addi	r16,sp,120
 4021810:	9806d0fa 	srli	r3,r19,3
 4021814:	b008977a 	slli	r4,r22,29
 4021818:	b02cd0fa 	srli	r22,r22,3
 402181c:	9cc001cc 	andi	r19,r19,7
 4021820:	98800c04 	addi	r2,r19,48
 4021824:	843fffc4 	addi	r16,r16,-1
 4021828:	20e6b03a 	or	r19,r4,r3
 402182c:	80800005 	stb	r2,0(r16)
 4021830:	9d86b03a 	or	r3,r19,r22
 4021834:	183ff61e 	bne	r3,zero,4021810 <__flash_rwdata_start+0xffff0cd8>
 4021838:	90c0004c 	andi	r3,r18,1
 402183c:	18014126 	beq	r3,zero,4021d44 <___vfprintf_internal_r+0xc34>
 4021840:	10803fcc 	andi	r2,r2,255
 4021844:	1080201c 	xori	r2,r2,128
 4021848:	10bfe004 	addi	r2,r2,-128
 402184c:	00c00c04 	movi	r3,48
 4021850:	10c13c26 	beq	r2,r3,4021d44 <___vfprintf_internal_r+0xc34>
 4021854:	80ffffc5 	stb	r3,-1(r16)
 4021858:	d8c02817 	ldw	r3,160(sp)
 402185c:	80bfffc4 	addi	r2,r16,-1
 4021860:	1021883a 	mov	r16,r2
 4021864:	1887c83a 	sub	r3,r3,r2
 4021868:	d8c02b15 	stw	r3,172(sp)
 402186c:	d8802b17 	ldw	r2,172(sp)
 4021870:	d9002a17 	ldw	r4,168(sp)
 4021874:	1100010e 	bge	r2,r4,402187c <___vfprintf_internal_r+0x76c>
 4021878:	2005883a 	mov	r2,r4
 402187c:	d8802915 	stw	r2,164(sp)
 4021880:	d8003215 	stw	zero,200(sp)
 4021884:	e7003fcc 	andi	fp,fp,255
 4021888:	e700201c 	xori	fp,fp,128
 402188c:	e73fe004 	addi	fp,fp,-128
 4021890:	e0000326 	beq	fp,zero,40218a0 <___vfprintf_internal_r+0x790>
 4021894:	d8c02917 	ldw	r3,164(sp)
 4021898:	18c00044 	addi	r3,r3,1
 402189c:	d8c02915 	stw	r3,164(sp)
 40218a0:	90c0008c 	andi	r3,r18,2
 40218a4:	d8c02c15 	stw	r3,176(sp)
 40218a8:	18000326 	beq	r3,zero,40218b8 <___vfprintf_internal_r+0x7a8>
 40218ac:	d8c02917 	ldw	r3,164(sp)
 40218b0:	18c00084 	addi	r3,r3,2
 40218b4:	d8c02915 	stw	r3,164(sp)
 40218b8:	90c0210c 	andi	r3,r18,132
 40218bc:	d8c03015 	stw	r3,192(sp)
 40218c0:	1801c51e 	bne	r3,zero,4021fd8 <___vfprintf_internal_r+0xec8>
 40218c4:	d9003117 	ldw	r4,196(sp)
 40218c8:	d8c02917 	ldw	r3,164(sp)
 40218cc:	20e7c83a 	sub	r19,r4,r3
 40218d0:	04c1c10e 	bge	zero,r19,4021fd8 <___vfprintf_internal_r+0xec8>
 40218d4:	02400404 	movi	r9,16
 40218d8:	d8c02017 	ldw	r3,128(sp)
 40218dc:	d8801f17 	ldw	r2,124(sp)
 40218e0:	4cc52f0e 	bge	r9,r19,4022da0 <___vfprintf_internal_r+0x1c90>
 40218e4:	01400034 	movhi	r5,0
 40218e8:	29406884 	addi	r5,r5,418
 40218ec:	dc403b15 	stw	r17,236(sp)
 40218f0:	d9403515 	stw	r5,212(sp)
 40218f4:	9823883a 	mov	r17,r19
 40218f8:	482d883a 	mov	r22,r9
 40218fc:	9027883a 	mov	r19,r18
 4021900:	070001c4 	movi	fp,7
 4021904:	8025883a 	mov	r18,r16
 4021908:	dc002d17 	ldw	r16,180(sp)
 402190c:	00000306 	br	402191c <___vfprintf_internal_r+0x80c>
 4021910:	8c7ffc04 	addi	r17,r17,-16
 4021914:	42000204 	addi	r8,r8,8
 4021918:	b440130e 	bge	r22,r17,4021968 <___vfprintf_internal_r+0x858>
 402191c:	01000034 	movhi	r4,0
 4021920:	18c00404 	addi	r3,r3,16
 4021924:	10800044 	addi	r2,r2,1
 4021928:	21006884 	addi	r4,r4,418
 402192c:	41000015 	stw	r4,0(r8)
 4021930:	45800115 	stw	r22,4(r8)
 4021934:	d8c02015 	stw	r3,128(sp)
 4021938:	d8801f15 	stw	r2,124(sp)
 402193c:	e0bff40e 	bge	fp,r2,4021910 <__flash_rwdata_start+0xffff0dd8>
 4021940:	d9801e04 	addi	r6,sp,120
 4021944:	b80b883a 	mov	r5,r23
 4021948:	8009883a 	mov	r4,r16
 402194c:	40289100 	call	4028910 <__sprint_r>
 4021950:	103ef31e 	bne	r2,zero,4021520 <__flash_rwdata_start+0xffff09e8>
 4021954:	8c7ffc04 	addi	r17,r17,-16
 4021958:	d8c02017 	ldw	r3,128(sp)
 402195c:	d8801f17 	ldw	r2,124(sp)
 4021960:	da000404 	addi	r8,sp,16
 4021964:	b47fed16 	blt	r22,r17,402191c <__flash_rwdata_start+0xffff0de4>
 4021968:	9021883a 	mov	r16,r18
 402196c:	9825883a 	mov	r18,r19
 4021970:	8827883a 	mov	r19,r17
 4021974:	dc403b17 	ldw	r17,236(sp)
 4021978:	d9403517 	ldw	r5,212(sp)
 402197c:	98c7883a 	add	r3,r19,r3
 4021980:	10800044 	addi	r2,r2,1
 4021984:	41400015 	stw	r5,0(r8)
 4021988:	44c00115 	stw	r19,4(r8)
 402198c:	d8c02015 	stw	r3,128(sp)
 4021990:	d8801f15 	stw	r2,124(sp)
 4021994:	010001c4 	movi	r4,7
 4021998:	2082c516 	blt	r4,r2,40224b0 <___vfprintf_internal_r+0x13a0>
 402199c:	df002787 	ldb	fp,158(sp)
 40219a0:	42000204 	addi	r8,r8,8
 40219a4:	e0000c26 	beq	fp,zero,40219d8 <___vfprintf_internal_r+0x8c8>
 40219a8:	d8801f17 	ldw	r2,124(sp)
 40219ac:	d9002784 	addi	r4,sp,158
 40219b0:	18c00044 	addi	r3,r3,1
 40219b4:	10800044 	addi	r2,r2,1
 40219b8:	41000015 	stw	r4,0(r8)
 40219bc:	01000044 	movi	r4,1
 40219c0:	41000115 	stw	r4,4(r8)
 40219c4:	d8c02015 	stw	r3,128(sp)
 40219c8:	d8801f15 	stw	r2,124(sp)
 40219cc:	010001c4 	movi	r4,7
 40219d0:	20825e16 	blt	r4,r2,402234c <___vfprintf_internal_r+0x123c>
 40219d4:	42000204 	addi	r8,r8,8
 40219d8:	d8802c17 	ldw	r2,176(sp)
 40219dc:	10000c26 	beq	r2,zero,4021a10 <___vfprintf_internal_r+0x900>
 40219e0:	d8801f17 	ldw	r2,124(sp)
 40219e4:	d9002704 	addi	r4,sp,156
 40219e8:	18c00084 	addi	r3,r3,2
 40219ec:	10800044 	addi	r2,r2,1
 40219f0:	41000015 	stw	r4,0(r8)
 40219f4:	01000084 	movi	r4,2
 40219f8:	41000115 	stw	r4,4(r8)
 40219fc:	d8c02015 	stw	r3,128(sp)
 4021a00:	d8801f15 	stw	r2,124(sp)
 4021a04:	010001c4 	movi	r4,7
 4021a08:	20825816 	blt	r4,r2,402236c <___vfprintf_internal_r+0x125c>
 4021a0c:	42000204 	addi	r8,r8,8
 4021a10:	d9003017 	ldw	r4,192(sp)
 4021a14:	00802004 	movi	r2,128
 4021a18:	2081bb26 	beq	r4,r2,4022108 <___vfprintf_internal_r+0xff8>
 4021a1c:	d9402a17 	ldw	r5,168(sp)
 4021a20:	d8802b17 	ldw	r2,172(sp)
 4021a24:	28adc83a 	sub	r22,r5,r2
 4021a28:	0580310e 	bge	zero,r22,4021af0 <___vfprintf_internal_r+0x9e0>
 4021a2c:	07000404 	movi	fp,16
 4021a30:	d8801f17 	ldw	r2,124(sp)
 4021a34:	e584360e 	bge	fp,r22,4022b10 <___vfprintf_internal_r+0x1a00>
 4021a38:	01400034 	movhi	r5,0
 4021a3c:	29406484 	addi	r5,r5,402
 4021a40:	dc402a15 	stw	r17,168(sp)
 4021a44:	d9402c15 	stw	r5,176(sp)
 4021a48:	b023883a 	mov	r17,r22
 4021a4c:	04c001c4 	movi	r19,7
 4021a50:	a82d883a 	mov	r22,r21
 4021a54:	902b883a 	mov	r21,r18
 4021a58:	8025883a 	mov	r18,r16
 4021a5c:	dc002d17 	ldw	r16,180(sp)
 4021a60:	00000306 	br	4021a70 <___vfprintf_internal_r+0x960>
 4021a64:	8c7ffc04 	addi	r17,r17,-16
 4021a68:	42000204 	addi	r8,r8,8
 4021a6c:	e440110e 	bge	fp,r17,4021ab4 <___vfprintf_internal_r+0x9a4>
 4021a70:	18c00404 	addi	r3,r3,16
 4021a74:	10800044 	addi	r2,r2,1
 4021a78:	45000015 	stw	r20,0(r8)
 4021a7c:	47000115 	stw	fp,4(r8)
 4021a80:	d8c02015 	stw	r3,128(sp)
 4021a84:	d8801f15 	stw	r2,124(sp)
 4021a88:	98bff60e 	bge	r19,r2,4021a64 <__flash_rwdata_start+0xffff0f2c>
 4021a8c:	d9801e04 	addi	r6,sp,120
 4021a90:	b80b883a 	mov	r5,r23
 4021a94:	8009883a 	mov	r4,r16
 4021a98:	40289100 	call	4028910 <__sprint_r>
 4021a9c:	103ea01e 	bne	r2,zero,4021520 <__flash_rwdata_start+0xffff09e8>
 4021aa0:	8c7ffc04 	addi	r17,r17,-16
 4021aa4:	d8c02017 	ldw	r3,128(sp)
 4021aa8:	d8801f17 	ldw	r2,124(sp)
 4021aac:	da000404 	addi	r8,sp,16
 4021ab0:	e47fef16 	blt	fp,r17,4021a70 <__flash_rwdata_start+0xffff0f38>
 4021ab4:	9021883a 	mov	r16,r18
 4021ab8:	a825883a 	mov	r18,r21
 4021abc:	b02b883a 	mov	r21,r22
 4021ac0:	882d883a 	mov	r22,r17
 4021ac4:	dc402a17 	ldw	r17,168(sp)
 4021ac8:	d9002c17 	ldw	r4,176(sp)
 4021acc:	1d87883a 	add	r3,r3,r22
 4021ad0:	10800044 	addi	r2,r2,1
 4021ad4:	41000015 	stw	r4,0(r8)
 4021ad8:	45800115 	stw	r22,4(r8)
 4021adc:	d8c02015 	stw	r3,128(sp)
 4021ae0:	d8801f15 	stw	r2,124(sp)
 4021ae4:	010001c4 	movi	r4,7
 4021ae8:	20821016 	blt	r4,r2,402232c <___vfprintf_internal_r+0x121c>
 4021aec:	42000204 	addi	r8,r8,8
 4021af0:	9080400c 	andi	r2,r18,256
 4021af4:	10013a1e 	bne	r2,zero,4021fe0 <___vfprintf_internal_r+0xed0>
 4021af8:	d9402b17 	ldw	r5,172(sp)
 4021afc:	d8801f17 	ldw	r2,124(sp)
 4021b00:	44000015 	stw	r16,0(r8)
 4021b04:	1947883a 	add	r3,r3,r5
 4021b08:	10800044 	addi	r2,r2,1
 4021b0c:	41400115 	stw	r5,4(r8)
 4021b10:	d8c02015 	stw	r3,128(sp)
 4021b14:	d8801f15 	stw	r2,124(sp)
 4021b18:	010001c4 	movi	r4,7
 4021b1c:	2081f516 	blt	r4,r2,40222f4 <___vfprintf_internal_r+0x11e4>
 4021b20:	42000204 	addi	r8,r8,8
 4021b24:	9480010c 	andi	r18,r18,4
 4021b28:	90003226 	beq	r18,zero,4021bf4 <___vfprintf_internal_r+0xae4>
 4021b2c:	d9403117 	ldw	r5,196(sp)
 4021b30:	d8802917 	ldw	r2,164(sp)
 4021b34:	28a1c83a 	sub	r16,r5,r2
 4021b38:	04002e0e 	bge	zero,r16,4021bf4 <___vfprintf_internal_r+0xae4>
 4021b3c:	04400404 	movi	r17,16
 4021b40:	d8801f17 	ldw	r2,124(sp)
 4021b44:	8c04c40e 	bge	r17,r16,4022e58 <___vfprintf_internal_r+0x1d48>
 4021b48:	01400034 	movhi	r5,0
 4021b4c:	29406884 	addi	r5,r5,418
 4021b50:	d9403515 	stw	r5,212(sp)
 4021b54:	048001c4 	movi	r18,7
 4021b58:	dcc02d17 	ldw	r19,180(sp)
 4021b5c:	00000306 	br	4021b6c <___vfprintf_internal_r+0xa5c>
 4021b60:	843ffc04 	addi	r16,r16,-16
 4021b64:	42000204 	addi	r8,r8,8
 4021b68:	8c00130e 	bge	r17,r16,4021bb8 <___vfprintf_internal_r+0xaa8>
 4021b6c:	01000034 	movhi	r4,0
 4021b70:	18c00404 	addi	r3,r3,16
 4021b74:	10800044 	addi	r2,r2,1
 4021b78:	21006884 	addi	r4,r4,418
 4021b7c:	41000015 	stw	r4,0(r8)
 4021b80:	44400115 	stw	r17,4(r8)
 4021b84:	d8c02015 	stw	r3,128(sp)
 4021b88:	d8801f15 	stw	r2,124(sp)
 4021b8c:	90bff40e 	bge	r18,r2,4021b60 <__flash_rwdata_start+0xffff1028>
 4021b90:	d9801e04 	addi	r6,sp,120
 4021b94:	b80b883a 	mov	r5,r23
 4021b98:	9809883a 	mov	r4,r19
 4021b9c:	40289100 	call	4028910 <__sprint_r>
 4021ba0:	103e5f1e 	bne	r2,zero,4021520 <__flash_rwdata_start+0xffff09e8>
 4021ba4:	843ffc04 	addi	r16,r16,-16
 4021ba8:	d8c02017 	ldw	r3,128(sp)
 4021bac:	d8801f17 	ldw	r2,124(sp)
 4021bb0:	da000404 	addi	r8,sp,16
 4021bb4:	8c3fed16 	blt	r17,r16,4021b6c <__flash_rwdata_start+0xffff1034>
 4021bb8:	d9403517 	ldw	r5,212(sp)
 4021bbc:	1c07883a 	add	r3,r3,r16
 4021bc0:	10800044 	addi	r2,r2,1
 4021bc4:	41400015 	stw	r5,0(r8)
 4021bc8:	44000115 	stw	r16,4(r8)
 4021bcc:	d8c02015 	stw	r3,128(sp)
 4021bd0:	d8801f15 	stw	r2,124(sp)
 4021bd4:	010001c4 	movi	r4,7
 4021bd8:	2080060e 	bge	r4,r2,4021bf4 <___vfprintf_internal_r+0xae4>
 4021bdc:	d9002d17 	ldw	r4,180(sp)
 4021be0:	d9801e04 	addi	r6,sp,120
 4021be4:	b80b883a 	mov	r5,r23
 4021be8:	40289100 	call	4028910 <__sprint_r>
 4021bec:	103e4c1e 	bne	r2,zero,4021520 <__flash_rwdata_start+0xffff09e8>
 4021bf0:	d8c02017 	ldw	r3,128(sp)
 4021bf4:	d8803117 	ldw	r2,196(sp)
 4021bf8:	d9002917 	ldw	r4,164(sp)
 4021bfc:	1100010e 	bge	r2,r4,4021c04 <___vfprintf_internal_r+0xaf4>
 4021c00:	2005883a 	mov	r2,r4
 4021c04:	d9402f17 	ldw	r5,188(sp)
 4021c08:	288b883a 	add	r5,r5,r2
 4021c0c:	d9402f15 	stw	r5,188(sp)
 4021c10:	1801c01e 	bne	r3,zero,4022314 <___vfprintf_internal_r+0x1204>
 4021c14:	a8800007 	ldb	r2,0(r21)
 4021c18:	d8001f15 	stw	zero,124(sp)
 4021c1c:	da000404 	addi	r8,sp,16
 4021c20:	103d751e 	bne	r2,zero,40211f8 <__flash_rwdata_start+0xffff06c0>
 4021c24:	a823883a 	mov	r17,r21
 4021c28:	003d8b06 	br	4021258 <__flash_rwdata_start+0xffff0720>
 4021c2c:	8025883a 	mov	r18,r16
 4021c30:	dc002903 	ldbu	r16,164(sp)
 4021c34:	e011883a 	mov	r8,fp
 4021c38:	84003fcc 	andi	r16,r16,255
 4021c3c:	8005e51e 	bne	r16,zero,40233d4 <___vfprintf_internal_r+0x22c4>
 4021c40:	94800414 	ori	r18,r18,16
 4021c44:	9080080c 	andi	r2,r18,32
 4021c48:	10022b26 	beq	r2,zero,40224f8 <___vfprintf_internal_r+0x13e8>
 4021c4c:	d9002e17 	ldw	r4,184(sp)
 4021c50:	d9402a17 	ldw	r5,168(sp)
 4021c54:	d8002785 	stb	zero,158(sp)
 4021c58:	20c00204 	addi	r3,r4,8
 4021c5c:	24c00017 	ldw	r19,0(r4)
 4021c60:	25800117 	ldw	r22,4(r4)
 4021c64:	28042e16 	blt	r5,zero,4022d20 <___vfprintf_internal_r+0x1c10>
 4021c68:	013fdfc4 	movi	r4,-129
 4021c6c:	9d84b03a 	or	r2,r19,r22
 4021c70:	d8c02e15 	stw	r3,184(sp)
 4021c74:	9124703a 	and	r18,r18,r4
 4021c78:	0039883a 	mov	fp,zero
 4021c7c:	103e801e 	bne	r2,zero,4021680 <__flash_rwdata_start+0xffff0b48>
 4021c80:	d9002a17 	ldw	r4,168(sp)
 4021c84:	2002e01e 	bne	r4,zero,4022808 <___vfprintf_internal_r+0x16f8>
 4021c88:	d8002a15 	stw	zero,168(sp)
 4021c8c:	d8002b15 	stw	zero,172(sp)
 4021c90:	dc001e04 	addi	r16,sp,120
 4021c94:	003ef506 	br	402186c <__flash_rwdata_start+0xffff0d34>
 4021c98:	8025883a 	mov	r18,r16
 4021c9c:	dc002903 	ldbu	r16,164(sp)
 4021ca0:	e011883a 	mov	r8,fp
 4021ca4:	84003fcc 	andi	r16,r16,255
 4021ca8:	8005ba1e 	bne	r16,zero,4023394 <___vfprintf_internal_r+0x2284>
 4021cac:	01000034 	movhi	r4,0
 4021cb0:	21005804 	addi	r4,r4,352
 4021cb4:	d9003915 	stw	r4,228(sp)
 4021cb8:	9080080c 	andi	r2,r18,32
 4021cbc:	10006126 	beq	r2,zero,4021e44 <___vfprintf_internal_r+0xd34>
 4021cc0:	d9402e17 	ldw	r5,184(sp)
 4021cc4:	2cc00017 	ldw	r19,0(r5)
 4021cc8:	2d800117 	ldw	r22,4(r5)
 4021ccc:	29400204 	addi	r5,r5,8
 4021cd0:	d9402e15 	stw	r5,184(sp)
 4021cd4:	9080004c 	andi	r2,r18,1
 4021cd8:	1001ac26 	beq	r2,zero,402238c <___vfprintf_internal_r+0x127c>
 4021cdc:	9d84b03a 	or	r2,r19,r22
 4021ce0:	10038526 	beq	r2,zero,4022af8 <___vfprintf_internal_r+0x19e8>
 4021ce4:	d8c02a17 	ldw	r3,168(sp)
 4021ce8:	00800c04 	movi	r2,48
 4021cec:	d8802705 	stb	r2,156(sp)
 4021cf0:	dc402745 	stb	r17,157(sp)
 4021cf4:	d8002785 	stb	zero,158(sp)
 4021cf8:	90800094 	ori	r2,r18,2
 4021cfc:	18047916 	blt	r3,zero,4022ee4 <___vfprintf_internal_r+0x1dd4>
 4021d00:	00bfdfc4 	movi	r2,-129
 4021d04:	90a4703a 	and	r18,r18,r2
 4021d08:	94800094 	ori	r18,r18,2
 4021d0c:	0039883a 	mov	fp,zero
 4021d10:	d9003917 	ldw	r4,228(sp)
 4021d14:	dc001e04 	addi	r16,sp,120
 4021d18:	988003cc 	andi	r2,r19,15
 4021d1c:	b006973a 	slli	r3,r22,28
 4021d20:	2085883a 	add	r2,r4,r2
 4021d24:	9826d13a 	srli	r19,r19,4
 4021d28:	10800003 	ldbu	r2,0(r2)
 4021d2c:	b02cd13a 	srli	r22,r22,4
 4021d30:	843fffc4 	addi	r16,r16,-1
 4021d34:	1ce6b03a 	or	r19,r3,r19
 4021d38:	80800005 	stb	r2,0(r16)
 4021d3c:	9d84b03a 	or	r2,r19,r22
 4021d40:	103ff51e 	bne	r2,zero,4021d18 <__flash_rwdata_start+0xffff11e0>
 4021d44:	d8c02817 	ldw	r3,160(sp)
 4021d48:	1c07c83a 	sub	r3,r3,r16
 4021d4c:	d8c02b15 	stw	r3,172(sp)
 4021d50:	003ec606 	br	402186c <__flash_rwdata_start+0xffff0d34>
 4021d54:	8025883a 	mov	r18,r16
 4021d58:	dc002903 	ldbu	r16,164(sp)
 4021d5c:	e011883a 	mov	r8,fp
 4021d60:	84003fcc 	andi	r16,r16,255
 4021d64:	803e9626 	beq	r16,zero,40217c0 <__flash_rwdata_start+0xffff0c88>
 4021d68:	d8c02b03 	ldbu	r3,172(sp)
 4021d6c:	d8c02785 	stb	r3,158(sp)
 4021d70:	003e9306 	br	40217c0 <__flash_rwdata_start+0xffff0c88>
 4021d74:	00c00044 	movi	r3,1
 4021d78:	d8c02905 	stb	r3,164(sp)
 4021d7c:	00c00ac4 	movi	r3,43
 4021d80:	d8c02b05 	stb	r3,172(sp)
 4021d84:	ac400007 	ldb	r17,0(r21)
 4021d88:	003d4306 	br	4021298 <__flash_rwdata_start+0xffff0760>
 4021d8c:	84000814 	ori	r16,r16,32
 4021d90:	ac400007 	ldb	r17,0(r21)
 4021d94:	003d4006 	br	4021298 <__flash_rwdata_start+0xffff0760>
 4021d98:	d8802e17 	ldw	r2,184(sp)
 4021d9c:	8025883a 	mov	r18,r16
 4021da0:	d8002785 	stb	zero,158(sp)
 4021da4:	14000017 	ldw	r16,0(r2)
 4021da8:	e011883a 	mov	r8,fp
 4021dac:	14c00104 	addi	r19,r2,4
 4021db0:	80042d26 	beq	r16,zero,4022e68 <___vfprintf_internal_r+0x1d58>
 4021db4:	d8c02a17 	ldw	r3,168(sp)
 4021db8:	1803e416 	blt	r3,zero,4022d4c <___vfprintf_internal_r+0x1c3c>
 4021dbc:	180d883a 	mov	r6,r3
 4021dc0:	000b883a 	mov	r5,zero
 4021dc4:	8009883a 	mov	r4,r16
 4021dc8:	df003d15 	stw	fp,244(sp)
 4021dcc:	4026a480 	call	4026a48 <memchr>
 4021dd0:	da003d17 	ldw	r8,244(sp)
 4021dd4:	10046826 	beq	r2,zero,4022f78 <___vfprintf_internal_r+0x1e68>
 4021dd8:	1405c83a 	sub	r2,r2,r16
 4021ddc:	d8802b15 	stw	r2,172(sp)
 4021de0:	1003e016 	blt	r2,zero,4022d64 <___vfprintf_internal_r+0x1c54>
 4021de4:	df002783 	ldbu	fp,158(sp)
 4021de8:	d8802915 	stw	r2,164(sp)
 4021dec:	dcc02e15 	stw	r19,184(sp)
 4021df0:	d8002a15 	stw	zero,168(sp)
 4021df4:	d8003215 	stw	zero,200(sp)
 4021df8:	003ea206 	br	4021884 <__flash_rwdata_start+0xffff0d4c>
 4021dfc:	8025883a 	mov	r18,r16
 4021e00:	dc002903 	ldbu	r16,164(sp)
 4021e04:	e011883a 	mov	r8,fp
 4021e08:	84003fcc 	andi	r16,r16,255
 4021e0c:	803f8d26 	beq	r16,zero,4021c44 <__flash_rwdata_start+0xffff110c>
 4021e10:	d8c02b03 	ldbu	r3,172(sp)
 4021e14:	d8c02785 	stb	r3,158(sp)
 4021e18:	003f8a06 	br	4021c44 <__flash_rwdata_start+0xffff110c>
 4021e1c:	8025883a 	mov	r18,r16
 4021e20:	dc002903 	ldbu	r16,164(sp)
 4021e24:	e011883a 	mov	r8,fp
 4021e28:	84003fcc 	andi	r16,r16,255
 4021e2c:	8005661e 	bne	r16,zero,40233c8 <___vfprintf_internal_r+0x22b8>
 4021e30:	01000034 	movhi	r4,0
 4021e34:	21005d04 	addi	r4,r4,372
 4021e38:	d9003915 	stw	r4,228(sp)
 4021e3c:	9080080c 	andi	r2,r18,32
 4021e40:	103f9f1e 	bne	r2,zero,4021cc0 <__flash_rwdata_start+0xffff1188>
 4021e44:	9080040c 	andi	r2,r18,16
 4021e48:	1002eb26 	beq	r2,zero,40229f8 <___vfprintf_internal_r+0x18e8>
 4021e4c:	d8802e17 	ldw	r2,184(sp)
 4021e50:	002d883a 	mov	r22,zero
 4021e54:	14c00017 	ldw	r19,0(r2)
 4021e58:	10800104 	addi	r2,r2,4
 4021e5c:	d8802e15 	stw	r2,184(sp)
 4021e60:	003f9c06 	br	4021cd4 <__flash_rwdata_start+0xffff119c>
 4021e64:	d8802b07 	ldb	r2,172(sp)
 4021e68:	1002e11e 	bne	r2,zero,40229f0 <___vfprintf_internal_r+0x18e0>
 4021e6c:	00c00044 	movi	r3,1
 4021e70:	d8c02905 	stb	r3,164(sp)
 4021e74:	00c00804 	movi	r3,32
 4021e78:	d8c02b05 	stb	r3,172(sp)
 4021e7c:	ac400007 	ldb	r17,0(r21)
 4021e80:	003d0506 	br	4021298 <__flash_rwdata_start+0xffff0760>
 4021e84:	84000054 	ori	r16,r16,1
 4021e88:	ac400007 	ldb	r17,0(r21)
 4021e8c:	003d0206 	br	4021298 <__flash_rwdata_start+0xffff0760>
 4021e90:	8025883a 	mov	r18,r16
 4021e94:	dc002903 	ldbu	r16,164(sp)
 4021e98:	e011883a 	mov	r8,fp
 4021e9c:	84003fcc 	andi	r16,r16,255
 4021ea0:	803de726 	beq	r16,zero,4021640 <__flash_rwdata_start+0xffff0b08>
 4021ea4:	d8c02b03 	ldbu	r3,172(sp)
 4021ea8:	d8c02785 	stb	r3,158(sp)
 4021eac:	003de406 	br	4021640 <__flash_rwdata_start+0xffff0b08>
 4021eb0:	84001014 	ori	r16,r16,64
 4021eb4:	ac400007 	ldb	r17,0(r21)
 4021eb8:	003cf706 	br	4021298 <__flash_rwdata_start+0xffff0760>
 4021ebc:	ac400007 	ldb	r17,0(r21)
 4021ec0:	00801b04 	movi	r2,108
 4021ec4:	88838f26 	beq	r17,r2,4022d04 <___vfprintf_internal_r+0x1bf4>
 4021ec8:	84000414 	ori	r16,r16,16
 4021ecc:	003cf206 	br	4021298 <__flash_rwdata_start+0xffff0760>
 4021ed0:	8025883a 	mov	r18,r16
 4021ed4:	dc002903 	ldbu	r16,164(sp)
 4021ed8:	e011883a 	mov	r8,fp
 4021edc:	84003fcc 	andi	r16,r16,255
 4021ee0:	80053f1e 	bne	r16,zero,40233e0 <___vfprintf_internal_r+0x22d0>
 4021ee4:	9080080c 	andi	r2,r18,32
 4021ee8:	1002d226 	beq	r2,zero,4022a34 <___vfprintf_internal_r+0x1924>
 4021eec:	d9002e17 	ldw	r4,184(sp)
 4021ef0:	d9402f17 	ldw	r5,188(sp)
 4021ef4:	20800017 	ldw	r2,0(r4)
 4021ef8:	2807d7fa 	srai	r3,r5,31
 4021efc:	21000104 	addi	r4,r4,4
 4021f00:	d9002e15 	stw	r4,184(sp)
 4021f04:	11400015 	stw	r5,0(r2)
 4021f08:	10c00115 	stw	r3,4(r2)
 4021f0c:	003cb806 	br	40211f0 <__flash_rwdata_start+0xffff06b8>
 4021f10:	d8c02e17 	ldw	r3,184(sp)
 4021f14:	d9002e17 	ldw	r4,184(sp)
 4021f18:	8025883a 	mov	r18,r16
 4021f1c:	18800017 	ldw	r2,0(r3)
 4021f20:	21000104 	addi	r4,r4,4
 4021f24:	00c00044 	movi	r3,1
 4021f28:	e011883a 	mov	r8,fp
 4021f2c:	d8c02915 	stw	r3,164(sp)
 4021f30:	d8002785 	stb	zero,158(sp)
 4021f34:	d8801405 	stb	r2,80(sp)
 4021f38:	d9002e15 	stw	r4,184(sp)
 4021f3c:	d8c02b15 	stw	r3,172(sp)
 4021f40:	d8002a15 	stw	zero,168(sp)
 4021f44:	d8003215 	stw	zero,200(sp)
 4021f48:	dc001404 	addi	r16,sp,80
 4021f4c:	0039883a 	mov	fp,zero
 4021f50:	003e5306 	br	40218a0 <__flash_rwdata_start+0xffff0d68>
 4021f54:	01000034 	movhi	r4,0
 4021f58:	21005d04 	addi	r4,r4,372
 4021f5c:	0039883a 	mov	fp,zero
 4021f60:	d9003915 	stw	r4,228(sp)
 4021f64:	04401e04 	movi	r17,120
 4021f68:	003f6906 	br	4021d10 <__flash_rwdata_start+0xffff11d8>
 4021f6c:	8025883a 	mov	r18,r16
 4021f70:	dc002903 	ldbu	r16,164(sp)
 4021f74:	e011883a 	mov	r8,fp
 4021f78:	84003fcc 	andi	r16,r16,255
 4021f7c:	8005081e 	bne	r16,zero,40233a0 <___vfprintf_internal_r+0x2290>
 4021f80:	883d6126 	beq	r17,zero,4021508 <__flash_rwdata_start+0xffff09d0>
 4021f84:	00c00044 	movi	r3,1
 4021f88:	d8c02915 	stw	r3,164(sp)
 4021f8c:	dc401405 	stb	r17,80(sp)
 4021f90:	d8002785 	stb	zero,158(sp)
 4021f94:	003fe906 	br	4021f3c <__flash_rwdata_start+0xffff1404>
 4021f98:	01400034 	movhi	r5,0
 4021f9c:	29405d04 	addi	r5,r5,372
 4021fa0:	d9403915 	stw	r5,228(sp)
 4021fa4:	d8c02e15 	stw	r3,184(sp)
 4021fa8:	1025883a 	mov	r18,r2
 4021fac:	04401e04 	movi	r17,120
 4021fb0:	9d84b03a 	or	r2,r19,r22
 4021fb4:	1000fc1e 	bne	r2,zero,40223a8 <___vfprintf_internal_r+0x1298>
 4021fb8:	0039883a 	mov	fp,zero
 4021fbc:	00800084 	movi	r2,2
 4021fc0:	10803fcc 	andi	r2,r2,255
 4021fc4:	00c00044 	movi	r3,1
 4021fc8:	10c20f26 	beq	r2,r3,4022808 <___vfprintf_internal_r+0x16f8>
 4021fcc:	00c00084 	movi	r3,2
 4021fd0:	10fd3326 	beq	r2,r3,40214a0 <__flash_rwdata_start+0xffff0968>
 4021fd4:	003e0b06 	br	4021804 <__flash_rwdata_start+0xffff0ccc>
 4021fd8:	d8c02017 	ldw	r3,128(sp)
 4021fdc:	003e7106 	br	40219a4 <__flash_rwdata_start+0xffff0e6c>
 4021fe0:	00801944 	movi	r2,101
 4021fe4:	14407e0e 	bge	r2,r17,40221e0 <___vfprintf_internal_r+0x10d0>
 4021fe8:	d9003617 	ldw	r4,216(sp)
 4021fec:	d9403817 	ldw	r5,224(sp)
 4021ff0:	000d883a 	mov	r6,zero
 4021ff4:	000f883a 	mov	r7,zero
 4021ff8:	d8c03c15 	stw	r3,240(sp)
 4021ffc:	da003d15 	stw	r8,244(sp)
 4022000:	402c7a00 	call	402c7a0 <__eqdf2>
 4022004:	d8c03c17 	ldw	r3,240(sp)
 4022008:	da003d17 	ldw	r8,244(sp)
 402200c:	1000f71e 	bne	r2,zero,40223ec <___vfprintf_internal_r+0x12dc>
 4022010:	d8801f17 	ldw	r2,124(sp)
 4022014:	01000034 	movhi	r4,0
 4022018:	21006404 	addi	r4,r4,400
 402201c:	18c00044 	addi	r3,r3,1
 4022020:	10800044 	addi	r2,r2,1
 4022024:	41000015 	stw	r4,0(r8)
 4022028:	01000044 	movi	r4,1
 402202c:	41000115 	stw	r4,4(r8)
 4022030:	d8c02015 	stw	r3,128(sp)
 4022034:	d8801f15 	stw	r2,124(sp)
 4022038:	010001c4 	movi	r4,7
 402203c:	2082b816 	blt	r4,r2,4022b20 <___vfprintf_internal_r+0x1a10>
 4022040:	42000204 	addi	r8,r8,8
 4022044:	d8802617 	ldw	r2,152(sp)
 4022048:	d9403317 	ldw	r5,204(sp)
 402204c:	11400216 	blt	r2,r5,4022058 <___vfprintf_internal_r+0xf48>
 4022050:	9080004c 	andi	r2,r18,1
 4022054:	103eb326 	beq	r2,zero,4021b24 <__flash_rwdata_start+0xffff0fec>
 4022058:	d8803717 	ldw	r2,220(sp)
 402205c:	d9003417 	ldw	r4,208(sp)
 4022060:	d9403717 	ldw	r5,220(sp)
 4022064:	1887883a 	add	r3,r3,r2
 4022068:	d8801f17 	ldw	r2,124(sp)
 402206c:	41000015 	stw	r4,0(r8)
 4022070:	41400115 	stw	r5,4(r8)
 4022074:	10800044 	addi	r2,r2,1
 4022078:	d8c02015 	stw	r3,128(sp)
 402207c:	d8801f15 	stw	r2,124(sp)
 4022080:	010001c4 	movi	r4,7
 4022084:	20832916 	blt	r4,r2,4022d2c <___vfprintf_internal_r+0x1c1c>
 4022088:	42000204 	addi	r8,r8,8
 402208c:	d8803317 	ldw	r2,204(sp)
 4022090:	143fffc4 	addi	r16,r2,-1
 4022094:	043ea30e 	bge	zero,r16,4021b24 <__flash_rwdata_start+0xffff0fec>
 4022098:	04400404 	movi	r17,16
 402209c:	d8801f17 	ldw	r2,124(sp)
 40220a0:	8c00880e 	bge	r17,r16,40222c4 <___vfprintf_internal_r+0x11b4>
 40220a4:	01400034 	movhi	r5,0
 40220a8:	29406484 	addi	r5,r5,402
 40220ac:	d9402c15 	stw	r5,176(sp)
 40220b0:	058001c4 	movi	r22,7
 40220b4:	dcc02d17 	ldw	r19,180(sp)
 40220b8:	00000306 	br	40220c8 <___vfprintf_internal_r+0xfb8>
 40220bc:	42000204 	addi	r8,r8,8
 40220c0:	843ffc04 	addi	r16,r16,-16
 40220c4:	8c00820e 	bge	r17,r16,40222d0 <___vfprintf_internal_r+0x11c0>
 40220c8:	18c00404 	addi	r3,r3,16
 40220cc:	10800044 	addi	r2,r2,1
 40220d0:	45000015 	stw	r20,0(r8)
 40220d4:	44400115 	stw	r17,4(r8)
 40220d8:	d8c02015 	stw	r3,128(sp)
 40220dc:	d8801f15 	stw	r2,124(sp)
 40220e0:	b0bff60e 	bge	r22,r2,40220bc <__flash_rwdata_start+0xffff1584>
 40220e4:	d9801e04 	addi	r6,sp,120
 40220e8:	b80b883a 	mov	r5,r23
 40220ec:	9809883a 	mov	r4,r19
 40220f0:	40289100 	call	4028910 <__sprint_r>
 40220f4:	103d0a1e 	bne	r2,zero,4021520 <__flash_rwdata_start+0xffff09e8>
 40220f8:	d8c02017 	ldw	r3,128(sp)
 40220fc:	d8801f17 	ldw	r2,124(sp)
 4022100:	da000404 	addi	r8,sp,16
 4022104:	003fee06 	br	40220c0 <__flash_rwdata_start+0xffff1588>
 4022108:	d9403117 	ldw	r5,196(sp)
 402210c:	d8802917 	ldw	r2,164(sp)
 4022110:	28adc83a 	sub	r22,r5,r2
 4022114:	05be410e 	bge	zero,r22,4021a1c <__flash_rwdata_start+0xffff0ee4>
 4022118:	07000404 	movi	fp,16
 402211c:	d8801f17 	ldw	r2,124(sp)
 4022120:	e5838f0e 	bge	fp,r22,4022f60 <___vfprintf_internal_r+0x1e50>
 4022124:	01400034 	movhi	r5,0
 4022128:	29406484 	addi	r5,r5,402
 402212c:	dc403015 	stw	r17,192(sp)
 4022130:	d9402c15 	stw	r5,176(sp)
 4022134:	b023883a 	mov	r17,r22
 4022138:	04c001c4 	movi	r19,7
 402213c:	a82d883a 	mov	r22,r21
 4022140:	902b883a 	mov	r21,r18
 4022144:	8025883a 	mov	r18,r16
 4022148:	dc002d17 	ldw	r16,180(sp)
 402214c:	00000306 	br	402215c <___vfprintf_internal_r+0x104c>
 4022150:	8c7ffc04 	addi	r17,r17,-16
 4022154:	42000204 	addi	r8,r8,8
 4022158:	e440110e 	bge	fp,r17,40221a0 <___vfprintf_internal_r+0x1090>
 402215c:	18c00404 	addi	r3,r3,16
 4022160:	10800044 	addi	r2,r2,1
 4022164:	45000015 	stw	r20,0(r8)
 4022168:	47000115 	stw	fp,4(r8)
 402216c:	d8c02015 	stw	r3,128(sp)
 4022170:	d8801f15 	stw	r2,124(sp)
 4022174:	98bff60e 	bge	r19,r2,4022150 <__flash_rwdata_start+0xffff1618>
 4022178:	d9801e04 	addi	r6,sp,120
 402217c:	b80b883a 	mov	r5,r23
 4022180:	8009883a 	mov	r4,r16
 4022184:	40289100 	call	4028910 <__sprint_r>
 4022188:	103ce51e 	bne	r2,zero,4021520 <__flash_rwdata_start+0xffff09e8>
 402218c:	8c7ffc04 	addi	r17,r17,-16
 4022190:	d8c02017 	ldw	r3,128(sp)
 4022194:	d8801f17 	ldw	r2,124(sp)
 4022198:	da000404 	addi	r8,sp,16
 402219c:	e47fef16 	blt	fp,r17,402215c <__flash_rwdata_start+0xffff1624>
 40221a0:	9021883a 	mov	r16,r18
 40221a4:	a825883a 	mov	r18,r21
 40221a8:	b02b883a 	mov	r21,r22
 40221ac:	882d883a 	mov	r22,r17
 40221b0:	dc403017 	ldw	r17,192(sp)
 40221b4:	d9002c17 	ldw	r4,176(sp)
 40221b8:	1d87883a 	add	r3,r3,r22
 40221bc:	10800044 	addi	r2,r2,1
 40221c0:	41000015 	stw	r4,0(r8)
 40221c4:	45800115 	stw	r22,4(r8)
 40221c8:	d8c02015 	stw	r3,128(sp)
 40221cc:	d8801f15 	stw	r2,124(sp)
 40221d0:	010001c4 	movi	r4,7
 40221d4:	20818e16 	blt	r4,r2,4022810 <___vfprintf_internal_r+0x1700>
 40221d8:	42000204 	addi	r8,r8,8
 40221dc:	003e0f06 	br	4021a1c <__flash_rwdata_start+0xffff0ee4>
 40221e0:	d9403317 	ldw	r5,204(sp)
 40221e4:	00800044 	movi	r2,1
 40221e8:	18c00044 	addi	r3,r3,1
 40221ec:	1141530e 	bge	r2,r5,402273c <___vfprintf_internal_r+0x162c>
 40221f0:	dc401f17 	ldw	r17,124(sp)
 40221f4:	00800044 	movi	r2,1
 40221f8:	40800115 	stw	r2,4(r8)
 40221fc:	8c400044 	addi	r17,r17,1
 4022200:	44000015 	stw	r16,0(r8)
 4022204:	d8c02015 	stw	r3,128(sp)
 4022208:	dc401f15 	stw	r17,124(sp)
 402220c:	008001c4 	movi	r2,7
 4022210:	14416b16 	blt	r2,r17,40227c0 <___vfprintf_internal_r+0x16b0>
 4022214:	42000204 	addi	r8,r8,8
 4022218:	d8803717 	ldw	r2,220(sp)
 402221c:	d9003417 	ldw	r4,208(sp)
 4022220:	8c400044 	addi	r17,r17,1
 4022224:	10c7883a 	add	r3,r2,r3
 4022228:	40800115 	stw	r2,4(r8)
 402222c:	41000015 	stw	r4,0(r8)
 4022230:	d8c02015 	stw	r3,128(sp)
 4022234:	dc401f15 	stw	r17,124(sp)
 4022238:	008001c4 	movi	r2,7
 402223c:	14416916 	blt	r2,r17,40227e4 <___vfprintf_internal_r+0x16d4>
 4022240:	45800204 	addi	r22,r8,8
 4022244:	d9003617 	ldw	r4,216(sp)
 4022248:	d9403817 	ldw	r5,224(sp)
 402224c:	000d883a 	mov	r6,zero
 4022250:	000f883a 	mov	r7,zero
 4022254:	d8c03c15 	stw	r3,240(sp)
 4022258:	402c7a00 	call	402c7a0 <__eqdf2>
 402225c:	d8c03c17 	ldw	r3,240(sp)
 4022260:	1000bc26 	beq	r2,zero,4022554 <___vfprintf_internal_r+0x1444>
 4022264:	d9403317 	ldw	r5,204(sp)
 4022268:	84000044 	addi	r16,r16,1
 402226c:	8c400044 	addi	r17,r17,1
 4022270:	28bfffc4 	addi	r2,r5,-1
 4022274:	1887883a 	add	r3,r3,r2
 4022278:	b0800115 	stw	r2,4(r22)
 402227c:	b4000015 	stw	r16,0(r22)
 4022280:	d8c02015 	stw	r3,128(sp)
 4022284:	dc401f15 	stw	r17,124(sp)
 4022288:	008001c4 	movi	r2,7
 402228c:	14414316 	blt	r2,r17,402279c <___vfprintf_internal_r+0x168c>
 4022290:	b5800204 	addi	r22,r22,8
 4022294:	d9003a17 	ldw	r4,232(sp)
 4022298:	df0022c4 	addi	fp,sp,139
 402229c:	8c400044 	addi	r17,r17,1
 40222a0:	20c7883a 	add	r3,r4,r3
 40222a4:	b7000015 	stw	fp,0(r22)
 40222a8:	b1000115 	stw	r4,4(r22)
 40222ac:	d8c02015 	stw	r3,128(sp)
 40222b0:	dc401f15 	stw	r17,124(sp)
 40222b4:	008001c4 	movi	r2,7
 40222b8:	14400e16 	blt	r2,r17,40222f4 <___vfprintf_internal_r+0x11e4>
 40222bc:	b2000204 	addi	r8,r22,8
 40222c0:	003e1806 	br	4021b24 <__flash_rwdata_start+0xffff0fec>
 40222c4:	01000034 	movhi	r4,0
 40222c8:	21006484 	addi	r4,r4,402
 40222cc:	d9002c15 	stw	r4,176(sp)
 40222d0:	d9002c17 	ldw	r4,176(sp)
 40222d4:	1c07883a 	add	r3,r3,r16
 40222d8:	44000115 	stw	r16,4(r8)
 40222dc:	41000015 	stw	r4,0(r8)
 40222e0:	10800044 	addi	r2,r2,1
 40222e4:	d8c02015 	stw	r3,128(sp)
 40222e8:	d8801f15 	stw	r2,124(sp)
 40222ec:	010001c4 	movi	r4,7
 40222f0:	20be0b0e 	bge	r4,r2,4021b20 <__flash_rwdata_start+0xffff0fe8>
 40222f4:	d9002d17 	ldw	r4,180(sp)
 40222f8:	d9801e04 	addi	r6,sp,120
 40222fc:	b80b883a 	mov	r5,r23
 4022300:	40289100 	call	4028910 <__sprint_r>
 4022304:	103c861e 	bne	r2,zero,4021520 <__flash_rwdata_start+0xffff09e8>
 4022308:	d8c02017 	ldw	r3,128(sp)
 402230c:	da000404 	addi	r8,sp,16
 4022310:	003e0406 	br	4021b24 <__flash_rwdata_start+0xffff0fec>
 4022314:	d9002d17 	ldw	r4,180(sp)
 4022318:	d9801e04 	addi	r6,sp,120
 402231c:	b80b883a 	mov	r5,r23
 4022320:	40289100 	call	4028910 <__sprint_r>
 4022324:	103e3b26 	beq	r2,zero,4021c14 <__flash_rwdata_start+0xffff10dc>
 4022328:	003c7d06 	br	4021520 <__flash_rwdata_start+0xffff09e8>
 402232c:	d9002d17 	ldw	r4,180(sp)
 4022330:	d9801e04 	addi	r6,sp,120
 4022334:	b80b883a 	mov	r5,r23
 4022338:	40289100 	call	4028910 <__sprint_r>
 402233c:	103c781e 	bne	r2,zero,4021520 <__flash_rwdata_start+0xffff09e8>
 4022340:	d8c02017 	ldw	r3,128(sp)
 4022344:	da000404 	addi	r8,sp,16
 4022348:	003de906 	br	4021af0 <__flash_rwdata_start+0xffff0fb8>
 402234c:	d9002d17 	ldw	r4,180(sp)
 4022350:	d9801e04 	addi	r6,sp,120
 4022354:	b80b883a 	mov	r5,r23
 4022358:	40289100 	call	4028910 <__sprint_r>
 402235c:	103c701e 	bne	r2,zero,4021520 <__flash_rwdata_start+0xffff09e8>
 4022360:	d8c02017 	ldw	r3,128(sp)
 4022364:	da000404 	addi	r8,sp,16
 4022368:	003d9b06 	br	40219d8 <__flash_rwdata_start+0xffff0ea0>
 402236c:	d9002d17 	ldw	r4,180(sp)
 4022370:	d9801e04 	addi	r6,sp,120
 4022374:	b80b883a 	mov	r5,r23
 4022378:	40289100 	call	4028910 <__sprint_r>
 402237c:	103c681e 	bne	r2,zero,4021520 <__flash_rwdata_start+0xffff09e8>
 4022380:	d8c02017 	ldw	r3,128(sp)
 4022384:	da000404 	addi	r8,sp,16
 4022388:	003da106 	br	4021a10 <__flash_rwdata_start+0xffff0ed8>
 402238c:	d9402a17 	ldw	r5,168(sp)
 4022390:	d8002785 	stb	zero,158(sp)
 4022394:	283f0616 	blt	r5,zero,4021fb0 <__flash_rwdata_start+0xffff1478>
 4022398:	00ffdfc4 	movi	r3,-129
 402239c:	9d84b03a 	or	r2,r19,r22
 40223a0:	90e4703a 	and	r18,r18,r3
 40223a4:	103c3b26 	beq	r2,zero,4021494 <__flash_rwdata_start+0xffff095c>
 40223a8:	0039883a 	mov	fp,zero
 40223ac:	003e5806 	br	4021d10 <__flash_rwdata_start+0xffff11d8>
 40223b0:	9080040c 	andi	r2,r18,16
 40223b4:	1001b326 	beq	r2,zero,4022a84 <___vfprintf_internal_r+0x1974>
 40223b8:	d8c02e17 	ldw	r3,184(sp)
 40223bc:	d9002a17 	ldw	r4,168(sp)
 40223c0:	d8002785 	stb	zero,158(sp)
 40223c4:	18800104 	addi	r2,r3,4
 40223c8:	1cc00017 	ldw	r19,0(r3)
 40223cc:	002d883a 	mov	r22,zero
 40223d0:	2001b516 	blt	r4,zero,4022aa8 <___vfprintf_internal_r+0x1998>
 40223d4:	00ffdfc4 	movi	r3,-129
 40223d8:	d8802e15 	stw	r2,184(sp)
 40223dc:	90e4703a 	and	r18,r18,r3
 40223e0:	983d0526 	beq	r19,zero,40217f8 <__flash_rwdata_start+0xffff0cc0>
 40223e4:	0039883a 	mov	fp,zero
 40223e8:	003d0806 	br	402180c <__flash_rwdata_start+0xffff0cd4>
 40223ec:	dc402617 	ldw	r17,152(sp)
 40223f0:	0441d30e 	bge	zero,r17,4022b40 <___vfprintf_internal_r+0x1a30>
 40223f4:	dc403217 	ldw	r17,200(sp)
 40223f8:	d8803317 	ldw	r2,204(sp)
 40223fc:	1440010e 	bge	r2,r17,4022404 <___vfprintf_internal_r+0x12f4>
 4022400:	1023883a 	mov	r17,r2
 4022404:	04400a0e 	bge	zero,r17,4022430 <___vfprintf_internal_r+0x1320>
 4022408:	d8801f17 	ldw	r2,124(sp)
 402240c:	1c47883a 	add	r3,r3,r17
 4022410:	44000015 	stw	r16,0(r8)
 4022414:	10800044 	addi	r2,r2,1
 4022418:	44400115 	stw	r17,4(r8)
 402241c:	d8c02015 	stw	r3,128(sp)
 4022420:	d8801f15 	stw	r2,124(sp)
 4022424:	010001c4 	movi	r4,7
 4022428:	20826516 	blt	r4,r2,4022dc0 <___vfprintf_internal_r+0x1cb0>
 402242c:	42000204 	addi	r8,r8,8
 4022430:	88026116 	blt	r17,zero,4022db8 <___vfprintf_internal_r+0x1ca8>
 4022434:	d9003217 	ldw	r4,200(sp)
 4022438:	2463c83a 	sub	r17,r4,r17
 402243c:	04407b0e 	bge	zero,r17,402262c <___vfprintf_internal_r+0x151c>
 4022440:	05800404 	movi	r22,16
 4022444:	d8801f17 	ldw	r2,124(sp)
 4022448:	b4419d0e 	bge	r22,r17,4022ac0 <___vfprintf_internal_r+0x19b0>
 402244c:	01000034 	movhi	r4,0
 4022450:	21006484 	addi	r4,r4,402
 4022454:	d9002c15 	stw	r4,176(sp)
 4022458:	070001c4 	movi	fp,7
 402245c:	dcc02d17 	ldw	r19,180(sp)
 4022460:	00000306 	br	4022470 <___vfprintf_internal_r+0x1360>
 4022464:	42000204 	addi	r8,r8,8
 4022468:	8c7ffc04 	addi	r17,r17,-16
 402246c:	b441970e 	bge	r22,r17,4022acc <___vfprintf_internal_r+0x19bc>
 4022470:	18c00404 	addi	r3,r3,16
 4022474:	10800044 	addi	r2,r2,1
 4022478:	45000015 	stw	r20,0(r8)
 402247c:	45800115 	stw	r22,4(r8)
 4022480:	d8c02015 	stw	r3,128(sp)
 4022484:	d8801f15 	stw	r2,124(sp)
 4022488:	e0bff60e 	bge	fp,r2,4022464 <__flash_rwdata_start+0xffff192c>
 402248c:	d9801e04 	addi	r6,sp,120
 4022490:	b80b883a 	mov	r5,r23
 4022494:	9809883a 	mov	r4,r19
 4022498:	40289100 	call	4028910 <__sprint_r>
 402249c:	103c201e 	bne	r2,zero,4021520 <__flash_rwdata_start+0xffff09e8>
 40224a0:	d8c02017 	ldw	r3,128(sp)
 40224a4:	d8801f17 	ldw	r2,124(sp)
 40224a8:	da000404 	addi	r8,sp,16
 40224ac:	003fee06 	br	4022468 <__flash_rwdata_start+0xffff1930>
 40224b0:	d9002d17 	ldw	r4,180(sp)
 40224b4:	d9801e04 	addi	r6,sp,120
 40224b8:	b80b883a 	mov	r5,r23
 40224bc:	40289100 	call	4028910 <__sprint_r>
 40224c0:	103c171e 	bne	r2,zero,4021520 <__flash_rwdata_start+0xffff09e8>
 40224c4:	d8c02017 	ldw	r3,128(sp)
 40224c8:	df002787 	ldb	fp,158(sp)
 40224cc:	da000404 	addi	r8,sp,16
 40224d0:	003d3406 	br	40219a4 <__flash_rwdata_start+0xffff0e6c>
 40224d4:	9080040c 	andi	r2,r18,16
 40224d8:	10016126 	beq	r2,zero,4022a60 <___vfprintf_internal_r+0x1950>
 40224dc:	d9402e17 	ldw	r5,184(sp)
 40224e0:	2cc00017 	ldw	r19,0(r5)
 40224e4:	29400104 	addi	r5,r5,4
 40224e8:	d9402e15 	stw	r5,184(sp)
 40224ec:	982dd7fa 	srai	r22,r19,31
 40224f0:	b005883a 	mov	r2,r22
 40224f4:	003c5a06 	br	4021660 <__flash_rwdata_start+0xffff0b28>
 40224f8:	9080040c 	andi	r2,r18,16
 40224fc:	10003526 	beq	r2,zero,40225d4 <___vfprintf_internal_r+0x14c4>
 4022500:	d8c02e17 	ldw	r3,184(sp)
 4022504:	d9002a17 	ldw	r4,168(sp)
 4022508:	d8002785 	stb	zero,158(sp)
 402250c:	18800104 	addi	r2,r3,4
 4022510:	1cc00017 	ldw	r19,0(r3)
 4022514:	002d883a 	mov	r22,zero
 4022518:	20003716 	blt	r4,zero,40225f8 <___vfprintf_internal_r+0x14e8>
 402251c:	00ffdfc4 	movi	r3,-129
 4022520:	d8802e15 	stw	r2,184(sp)
 4022524:	90e4703a 	and	r18,r18,r3
 4022528:	0039883a 	mov	fp,zero
 402252c:	983dd426 	beq	r19,zero,4021c80 <__flash_rwdata_start+0xffff1148>
 4022530:	00800244 	movi	r2,9
 4022534:	14fc5336 	bltu	r2,r19,4021684 <__flash_rwdata_start+0xffff0b4c>
 4022538:	d8c02817 	ldw	r3,160(sp)
 402253c:	dc001dc4 	addi	r16,sp,119
 4022540:	9cc00c04 	addi	r19,r19,48
 4022544:	1c07c83a 	sub	r3,r3,r16
 4022548:	dcc01dc5 	stb	r19,119(sp)
 402254c:	d8c02b15 	stw	r3,172(sp)
 4022550:	003cc606 	br	402186c <__flash_rwdata_start+0xffff0d34>
 4022554:	d8803317 	ldw	r2,204(sp)
 4022558:	143fffc4 	addi	r16,r2,-1
 402255c:	043f4d0e 	bge	zero,r16,4022294 <__flash_rwdata_start+0xffff175c>
 4022560:	07000404 	movi	fp,16
 4022564:	e400810e 	bge	fp,r16,402276c <___vfprintf_internal_r+0x165c>
 4022568:	01400034 	movhi	r5,0
 402256c:	29406484 	addi	r5,r5,402
 4022570:	d9402c15 	stw	r5,176(sp)
 4022574:	01c001c4 	movi	r7,7
 4022578:	dcc02d17 	ldw	r19,180(sp)
 402257c:	00000306 	br	402258c <___vfprintf_internal_r+0x147c>
 4022580:	b5800204 	addi	r22,r22,8
 4022584:	843ffc04 	addi	r16,r16,-16
 4022588:	e4007b0e 	bge	fp,r16,4022778 <___vfprintf_internal_r+0x1668>
 402258c:	18c00404 	addi	r3,r3,16
 4022590:	8c400044 	addi	r17,r17,1
 4022594:	b5000015 	stw	r20,0(r22)
 4022598:	b7000115 	stw	fp,4(r22)
 402259c:	d8c02015 	stw	r3,128(sp)
 40225a0:	dc401f15 	stw	r17,124(sp)
 40225a4:	3c7ff60e 	bge	r7,r17,4022580 <__flash_rwdata_start+0xffff1a48>
 40225a8:	d9801e04 	addi	r6,sp,120
 40225ac:	b80b883a 	mov	r5,r23
 40225b0:	9809883a 	mov	r4,r19
 40225b4:	d9c03c15 	stw	r7,240(sp)
 40225b8:	40289100 	call	4028910 <__sprint_r>
 40225bc:	d9c03c17 	ldw	r7,240(sp)
 40225c0:	103bd71e 	bne	r2,zero,4021520 <__flash_rwdata_start+0xffff09e8>
 40225c4:	d8c02017 	ldw	r3,128(sp)
 40225c8:	dc401f17 	ldw	r17,124(sp)
 40225cc:	dd800404 	addi	r22,sp,16
 40225d0:	003fec06 	br	4022584 <__flash_rwdata_start+0xffff1a4c>
 40225d4:	9080100c 	andi	r2,r18,64
 40225d8:	d8002785 	stb	zero,158(sp)
 40225dc:	10010e26 	beq	r2,zero,4022a18 <___vfprintf_internal_r+0x1908>
 40225e0:	d9402e17 	ldw	r5,184(sp)
 40225e4:	d8c02a17 	ldw	r3,168(sp)
 40225e8:	002d883a 	mov	r22,zero
 40225ec:	28800104 	addi	r2,r5,4
 40225f0:	2cc0000b 	ldhu	r19,0(r5)
 40225f4:	183fc90e 	bge	r3,zero,402251c <__flash_rwdata_start+0xffff19e4>
 40225f8:	d8802e15 	stw	r2,184(sp)
 40225fc:	0039883a 	mov	fp,zero
 4022600:	9d84b03a 	or	r2,r19,r22
 4022604:	103c1e1e 	bne	r2,zero,4021680 <__flash_rwdata_start+0xffff0b48>
 4022608:	00800044 	movi	r2,1
 402260c:	003e6c06 	br	4021fc0 <__flash_rwdata_start+0xffff1488>
 4022610:	d9002d17 	ldw	r4,180(sp)
 4022614:	d9801e04 	addi	r6,sp,120
 4022618:	b80b883a 	mov	r5,r23
 402261c:	40289100 	call	4028910 <__sprint_r>
 4022620:	103bbf1e 	bne	r2,zero,4021520 <__flash_rwdata_start+0xffff09e8>
 4022624:	d8c02017 	ldw	r3,128(sp)
 4022628:	da000404 	addi	r8,sp,16
 402262c:	d9003217 	ldw	r4,200(sp)
 4022630:	d8802617 	ldw	r2,152(sp)
 4022634:	d9403317 	ldw	r5,204(sp)
 4022638:	8123883a 	add	r17,r16,r4
 402263c:	11400216 	blt	r2,r5,4022648 <___vfprintf_internal_r+0x1538>
 4022640:	9100004c 	andi	r4,r18,1
 4022644:	20000d26 	beq	r4,zero,402267c <___vfprintf_internal_r+0x156c>
 4022648:	d9003717 	ldw	r4,220(sp)
 402264c:	d9403417 	ldw	r5,208(sp)
 4022650:	1907883a 	add	r3,r3,r4
 4022654:	d9001f17 	ldw	r4,124(sp)
 4022658:	41400015 	stw	r5,0(r8)
 402265c:	d9403717 	ldw	r5,220(sp)
 4022660:	21000044 	addi	r4,r4,1
 4022664:	d8c02015 	stw	r3,128(sp)
 4022668:	41400115 	stw	r5,4(r8)
 402266c:	d9001f15 	stw	r4,124(sp)
 4022670:	014001c4 	movi	r5,7
 4022674:	2901e816 	blt	r5,r4,4022e18 <___vfprintf_internal_r+0x1d08>
 4022678:	42000204 	addi	r8,r8,8
 402267c:	d9003317 	ldw	r4,204(sp)
 4022680:	8121883a 	add	r16,r16,r4
 4022684:	2085c83a 	sub	r2,r4,r2
 4022688:	8461c83a 	sub	r16,r16,r17
 402268c:	1400010e 	bge	r2,r16,4022694 <___vfprintf_internal_r+0x1584>
 4022690:	1021883a 	mov	r16,r2
 4022694:	04000a0e 	bge	zero,r16,40226c0 <___vfprintf_internal_r+0x15b0>
 4022698:	d9001f17 	ldw	r4,124(sp)
 402269c:	1c07883a 	add	r3,r3,r16
 40226a0:	44400015 	stw	r17,0(r8)
 40226a4:	21000044 	addi	r4,r4,1
 40226a8:	44000115 	stw	r16,4(r8)
 40226ac:	d8c02015 	stw	r3,128(sp)
 40226b0:	d9001f15 	stw	r4,124(sp)
 40226b4:	014001c4 	movi	r5,7
 40226b8:	2901fb16 	blt	r5,r4,4022ea8 <___vfprintf_internal_r+0x1d98>
 40226bc:	42000204 	addi	r8,r8,8
 40226c0:	8001f716 	blt	r16,zero,4022ea0 <___vfprintf_internal_r+0x1d90>
 40226c4:	1421c83a 	sub	r16,r2,r16
 40226c8:	043d160e 	bge	zero,r16,4021b24 <__flash_rwdata_start+0xffff0fec>
 40226cc:	04400404 	movi	r17,16
 40226d0:	d8801f17 	ldw	r2,124(sp)
 40226d4:	8c3efb0e 	bge	r17,r16,40222c4 <__flash_rwdata_start+0xffff178c>
 40226d8:	01400034 	movhi	r5,0
 40226dc:	29406484 	addi	r5,r5,402
 40226e0:	d9402c15 	stw	r5,176(sp)
 40226e4:	058001c4 	movi	r22,7
 40226e8:	dcc02d17 	ldw	r19,180(sp)
 40226ec:	00000306 	br	40226fc <___vfprintf_internal_r+0x15ec>
 40226f0:	42000204 	addi	r8,r8,8
 40226f4:	843ffc04 	addi	r16,r16,-16
 40226f8:	8c3ef50e 	bge	r17,r16,40222d0 <__flash_rwdata_start+0xffff1798>
 40226fc:	18c00404 	addi	r3,r3,16
 4022700:	10800044 	addi	r2,r2,1
 4022704:	45000015 	stw	r20,0(r8)
 4022708:	44400115 	stw	r17,4(r8)
 402270c:	d8c02015 	stw	r3,128(sp)
 4022710:	d8801f15 	stw	r2,124(sp)
 4022714:	b0bff60e 	bge	r22,r2,40226f0 <__flash_rwdata_start+0xffff1bb8>
 4022718:	d9801e04 	addi	r6,sp,120
 402271c:	b80b883a 	mov	r5,r23
 4022720:	9809883a 	mov	r4,r19
 4022724:	40289100 	call	4028910 <__sprint_r>
 4022728:	103b7d1e 	bne	r2,zero,4021520 <__flash_rwdata_start+0xffff09e8>
 402272c:	d8c02017 	ldw	r3,128(sp)
 4022730:	d8801f17 	ldw	r2,124(sp)
 4022734:	da000404 	addi	r8,sp,16
 4022738:	003fee06 	br	40226f4 <__flash_rwdata_start+0xffff1bbc>
 402273c:	9088703a 	and	r4,r18,r2
 4022740:	203eab1e 	bne	r4,zero,40221f0 <__flash_rwdata_start+0xffff16b8>
 4022744:	dc401f17 	ldw	r17,124(sp)
 4022748:	40800115 	stw	r2,4(r8)
 402274c:	44000015 	stw	r16,0(r8)
 4022750:	8c400044 	addi	r17,r17,1
 4022754:	d8c02015 	stw	r3,128(sp)
 4022758:	dc401f15 	stw	r17,124(sp)
 402275c:	008001c4 	movi	r2,7
 4022760:	14400e16 	blt	r2,r17,402279c <___vfprintf_internal_r+0x168c>
 4022764:	45800204 	addi	r22,r8,8
 4022768:	003eca06 	br	4022294 <__flash_rwdata_start+0xffff175c>
 402276c:	01000034 	movhi	r4,0
 4022770:	21006484 	addi	r4,r4,402
 4022774:	d9002c15 	stw	r4,176(sp)
 4022778:	d8802c17 	ldw	r2,176(sp)
 402277c:	1c07883a 	add	r3,r3,r16
 4022780:	8c400044 	addi	r17,r17,1
 4022784:	b0800015 	stw	r2,0(r22)
 4022788:	b4000115 	stw	r16,4(r22)
 402278c:	d8c02015 	stw	r3,128(sp)
 4022790:	dc401f15 	stw	r17,124(sp)
 4022794:	008001c4 	movi	r2,7
 4022798:	147ebd0e 	bge	r2,r17,4022290 <__flash_rwdata_start+0xffff1758>
 402279c:	d9002d17 	ldw	r4,180(sp)
 40227a0:	d9801e04 	addi	r6,sp,120
 40227a4:	b80b883a 	mov	r5,r23
 40227a8:	40289100 	call	4028910 <__sprint_r>
 40227ac:	103b5c1e 	bne	r2,zero,4021520 <__flash_rwdata_start+0xffff09e8>
 40227b0:	d8c02017 	ldw	r3,128(sp)
 40227b4:	dc401f17 	ldw	r17,124(sp)
 40227b8:	dd800404 	addi	r22,sp,16
 40227bc:	003eb506 	br	4022294 <__flash_rwdata_start+0xffff175c>
 40227c0:	d9002d17 	ldw	r4,180(sp)
 40227c4:	d9801e04 	addi	r6,sp,120
 40227c8:	b80b883a 	mov	r5,r23
 40227cc:	40289100 	call	4028910 <__sprint_r>
 40227d0:	103b531e 	bne	r2,zero,4021520 <__flash_rwdata_start+0xffff09e8>
 40227d4:	d8c02017 	ldw	r3,128(sp)
 40227d8:	dc401f17 	ldw	r17,124(sp)
 40227dc:	da000404 	addi	r8,sp,16
 40227e0:	003e8d06 	br	4022218 <__flash_rwdata_start+0xffff16e0>
 40227e4:	d9002d17 	ldw	r4,180(sp)
 40227e8:	d9801e04 	addi	r6,sp,120
 40227ec:	b80b883a 	mov	r5,r23
 40227f0:	40289100 	call	4028910 <__sprint_r>
 40227f4:	103b4a1e 	bne	r2,zero,4021520 <__flash_rwdata_start+0xffff09e8>
 40227f8:	d8c02017 	ldw	r3,128(sp)
 40227fc:	dc401f17 	ldw	r17,124(sp)
 4022800:	dd800404 	addi	r22,sp,16
 4022804:	003e8f06 	br	4022244 <__flash_rwdata_start+0xffff170c>
 4022808:	0027883a 	mov	r19,zero
 402280c:	003f4a06 	br	4022538 <__flash_rwdata_start+0xffff1a00>
 4022810:	d9002d17 	ldw	r4,180(sp)
 4022814:	d9801e04 	addi	r6,sp,120
 4022818:	b80b883a 	mov	r5,r23
 402281c:	40289100 	call	4028910 <__sprint_r>
 4022820:	103b3f1e 	bne	r2,zero,4021520 <__flash_rwdata_start+0xffff09e8>
 4022824:	d8c02017 	ldw	r3,128(sp)
 4022828:	da000404 	addi	r8,sp,16
 402282c:	003c7b06 	br	4021a1c <__flash_rwdata_start+0xffff0ee4>
 4022830:	d9402a17 	ldw	r5,168(sp)
 4022834:	04e7c83a 	sub	r19,zero,r19
 4022838:	07000b44 	movi	fp,45
 402283c:	9804c03a 	cmpne	r2,r19,zero
 4022840:	05adc83a 	sub	r22,zero,r22
 4022844:	df002785 	stb	fp,158(sp)
 4022848:	b0adc83a 	sub	r22,r22,r2
 402284c:	28017b16 	blt	r5,zero,4022e3c <___vfprintf_internal_r+0x1d2c>
 4022850:	00bfdfc4 	movi	r2,-129
 4022854:	90a4703a 	and	r18,r18,r2
 4022858:	003b8906 	br	4021680 <__flash_rwdata_start+0xffff0b48>
 402285c:	d9003617 	ldw	r4,216(sp)
 4022860:	d9403817 	ldw	r5,224(sp)
 4022864:	da003d15 	stw	r8,244(sp)
 4022868:	40285340 	call	4028534 <__fpclassifyd>
 402286c:	da003d17 	ldw	r8,244(sp)
 4022870:	1000f026 	beq	r2,zero,4022c34 <___vfprintf_internal_r+0x1b24>
 4022874:	d9002a17 	ldw	r4,168(sp)
 4022878:	05bff7c4 	movi	r22,-33
 402287c:	00bfffc4 	movi	r2,-1
 4022880:	8dac703a 	and	r22,r17,r22
 4022884:	20820026 	beq	r4,r2,4023088 <___vfprintf_internal_r+0x1f78>
 4022888:	008011c4 	movi	r2,71
 402288c:	b081f726 	beq	r22,r2,402306c <___vfprintf_internal_r+0x1f5c>
 4022890:	d9003817 	ldw	r4,224(sp)
 4022894:	90c04014 	ori	r3,r18,256
 4022898:	d8c02c15 	stw	r3,176(sp)
 402289c:	20021516 	blt	r4,zero,40230f4 <___vfprintf_internal_r+0x1fe4>
 40228a0:	dcc03817 	ldw	r19,224(sp)
 40228a4:	d8002905 	stb	zero,164(sp)
 40228a8:	00801984 	movi	r2,102
 40228ac:	8881f926 	beq	r17,r2,4023094 <___vfprintf_internal_r+0x1f84>
 40228b0:	00801184 	movi	r2,70
 40228b4:	88821c26 	beq	r17,r2,4023128 <___vfprintf_internal_r+0x2018>
 40228b8:	00801144 	movi	r2,69
 40228bc:	b081ef26 	beq	r22,r2,402307c <___vfprintf_internal_r+0x1f6c>
 40228c0:	d8c02a17 	ldw	r3,168(sp)
 40228c4:	d8802104 	addi	r2,sp,132
 40228c8:	d8800315 	stw	r2,12(sp)
 40228cc:	d9403617 	ldw	r5,216(sp)
 40228d0:	d8802504 	addi	r2,sp,148
 40228d4:	d9002d17 	ldw	r4,180(sp)
 40228d8:	d8800215 	stw	r2,8(sp)
 40228dc:	d8802604 	addi	r2,sp,152
 40228e0:	d8c00015 	stw	r3,0(sp)
 40228e4:	d8800115 	stw	r2,4(sp)
 40228e8:	01c00084 	movi	r7,2
 40228ec:	980d883a 	mov	r6,r19
 40228f0:	d8c03c15 	stw	r3,240(sp)
 40228f4:	da003d15 	stw	r8,244(sp)
 40228f8:	40238400 	call	4023840 <_dtoa_r>
 40228fc:	1021883a 	mov	r16,r2
 4022900:	008019c4 	movi	r2,103
 4022904:	d8c03c17 	ldw	r3,240(sp)
 4022908:	da003d17 	ldw	r8,244(sp)
 402290c:	88817126 	beq	r17,r2,4022ed4 <___vfprintf_internal_r+0x1dc4>
 4022910:	008011c4 	movi	r2,71
 4022914:	88829126 	beq	r17,r2,402335c <___vfprintf_internal_r+0x224c>
 4022918:	80f9883a 	add	fp,r16,r3
 402291c:	d9003617 	ldw	r4,216(sp)
 4022920:	000d883a 	mov	r6,zero
 4022924:	000f883a 	mov	r7,zero
 4022928:	980b883a 	mov	r5,r19
 402292c:	da003d15 	stw	r8,244(sp)
 4022930:	402c7a00 	call	402c7a0 <__eqdf2>
 4022934:	da003d17 	ldw	r8,244(sp)
 4022938:	10018d26 	beq	r2,zero,4022f70 <___vfprintf_internal_r+0x1e60>
 402293c:	d8802117 	ldw	r2,132(sp)
 4022940:	1700062e 	bgeu	r2,fp,402295c <___vfprintf_internal_r+0x184c>
 4022944:	01000c04 	movi	r4,48
 4022948:	10c00044 	addi	r3,r2,1
 402294c:	d8c02115 	stw	r3,132(sp)
 4022950:	11000005 	stb	r4,0(r2)
 4022954:	d8802117 	ldw	r2,132(sp)
 4022958:	173ffb36 	bltu	r2,fp,4022948 <__flash_rwdata_start+0xffff1e10>
 402295c:	1405c83a 	sub	r2,r2,r16
 4022960:	d8803315 	stw	r2,204(sp)
 4022964:	008011c4 	movi	r2,71
 4022968:	b0817626 	beq	r22,r2,4022f44 <___vfprintf_internal_r+0x1e34>
 402296c:	00801944 	movi	r2,101
 4022970:	1442800e 	bge	r2,r17,4023374 <___vfprintf_internal_r+0x2264>
 4022974:	d8c02617 	ldw	r3,152(sp)
 4022978:	00801984 	movi	r2,102
 402297c:	d8c03215 	stw	r3,200(sp)
 4022980:	8881fe26 	beq	r17,r2,402317c <___vfprintf_internal_r+0x206c>
 4022984:	d8c03217 	ldw	r3,200(sp)
 4022988:	d9003317 	ldw	r4,204(sp)
 402298c:	1901dd16 	blt	r3,r4,4023104 <___vfprintf_internal_r+0x1ff4>
 4022990:	9480004c 	andi	r18,r18,1
 4022994:	90022b1e 	bne	r18,zero,4023244 <___vfprintf_internal_r+0x2134>
 4022998:	1805883a 	mov	r2,r3
 402299c:	18028316 	blt	r3,zero,40233ac <___vfprintf_internal_r+0x229c>
 40229a0:	d8c03217 	ldw	r3,200(sp)
 40229a4:	044019c4 	movi	r17,103
 40229a8:	d8c02b15 	stw	r3,172(sp)
 40229ac:	df002907 	ldb	fp,164(sp)
 40229b0:	e001531e 	bne	fp,zero,4022f00 <___vfprintf_internal_r+0x1df0>
 40229b4:	df002783 	ldbu	fp,158(sp)
 40229b8:	d8802915 	stw	r2,164(sp)
 40229bc:	dc802c17 	ldw	r18,176(sp)
 40229c0:	d8002a15 	stw	zero,168(sp)
 40229c4:	003baf06 	br	4021884 <__flash_rwdata_start+0xffff0d4c>
 40229c8:	d8c02e17 	ldw	r3,184(sp)
 40229cc:	d9002e17 	ldw	r4,184(sp)
 40229d0:	d9402e17 	ldw	r5,184(sp)
 40229d4:	18c00017 	ldw	r3,0(r3)
 40229d8:	21000117 	ldw	r4,4(r4)
 40229dc:	29400204 	addi	r5,r5,8
 40229e0:	d8c03615 	stw	r3,216(sp)
 40229e4:	d9003815 	stw	r4,224(sp)
 40229e8:	d9402e15 	stw	r5,184(sp)
 40229ec:	003b5006 	br	4021730 <__flash_rwdata_start+0xffff0bf8>
 40229f0:	ac400007 	ldb	r17,0(r21)
 40229f4:	003a2806 	br	4021298 <__flash_rwdata_start+0xffff0760>
 40229f8:	9080100c 	andi	r2,r18,64
 40229fc:	1000a826 	beq	r2,zero,4022ca0 <___vfprintf_internal_r+0x1b90>
 4022a00:	d8c02e17 	ldw	r3,184(sp)
 4022a04:	002d883a 	mov	r22,zero
 4022a08:	1cc0000b 	ldhu	r19,0(r3)
 4022a0c:	18c00104 	addi	r3,r3,4
 4022a10:	d8c02e15 	stw	r3,184(sp)
 4022a14:	003caf06 	br	4021cd4 <__flash_rwdata_start+0xffff119c>
 4022a18:	d9002e17 	ldw	r4,184(sp)
 4022a1c:	d9402a17 	ldw	r5,168(sp)
 4022a20:	002d883a 	mov	r22,zero
 4022a24:	20800104 	addi	r2,r4,4
 4022a28:	24c00017 	ldw	r19,0(r4)
 4022a2c:	283ebb0e 	bge	r5,zero,402251c <__flash_rwdata_start+0xffff19e4>
 4022a30:	003ef106 	br	40225f8 <__flash_rwdata_start+0xffff1ac0>
 4022a34:	9080040c 	andi	r2,r18,16
 4022a38:	1000921e 	bne	r2,zero,4022c84 <___vfprintf_internal_r+0x1b74>
 4022a3c:	9480100c 	andi	r18,r18,64
 4022a40:	90013926 	beq	r18,zero,4022f28 <___vfprintf_internal_r+0x1e18>
 4022a44:	d9402e17 	ldw	r5,184(sp)
 4022a48:	d8c02f17 	ldw	r3,188(sp)
 4022a4c:	28800017 	ldw	r2,0(r5)
 4022a50:	29400104 	addi	r5,r5,4
 4022a54:	d9402e15 	stw	r5,184(sp)
 4022a58:	10c0000d 	sth	r3,0(r2)
 4022a5c:	0039e406 	br	40211f0 <__flash_rwdata_start+0xffff06b8>
 4022a60:	9080100c 	andi	r2,r18,64
 4022a64:	10008026 	beq	r2,zero,4022c68 <___vfprintf_internal_r+0x1b58>
 4022a68:	d8802e17 	ldw	r2,184(sp)
 4022a6c:	14c0000f 	ldh	r19,0(r2)
 4022a70:	10800104 	addi	r2,r2,4
 4022a74:	d8802e15 	stw	r2,184(sp)
 4022a78:	982dd7fa 	srai	r22,r19,31
 4022a7c:	b005883a 	mov	r2,r22
 4022a80:	003af706 	br	4021660 <__flash_rwdata_start+0xffff0b28>
 4022a84:	9080100c 	andi	r2,r18,64
 4022a88:	d8002785 	stb	zero,158(sp)
 4022a8c:	10008a1e 	bne	r2,zero,4022cb8 <___vfprintf_internal_r+0x1ba8>
 4022a90:	d9002e17 	ldw	r4,184(sp)
 4022a94:	d9402a17 	ldw	r5,168(sp)
 4022a98:	002d883a 	mov	r22,zero
 4022a9c:	20800104 	addi	r2,r4,4
 4022aa0:	24c00017 	ldw	r19,0(r4)
 4022aa4:	283e4b0e 	bge	r5,zero,40223d4 <__flash_rwdata_start+0xffff189c>
 4022aa8:	9d86b03a 	or	r3,r19,r22
 4022aac:	d8802e15 	stw	r2,184(sp)
 4022ab0:	183e4c1e 	bne	r3,zero,40223e4 <__flash_rwdata_start+0xffff18ac>
 4022ab4:	0039883a 	mov	fp,zero
 4022ab8:	0005883a 	mov	r2,zero
 4022abc:	003d4006 	br	4021fc0 <__flash_rwdata_start+0xffff1488>
 4022ac0:	01400034 	movhi	r5,0
 4022ac4:	29406484 	addi	r5,r5,402
 4022ac8:	d9402c15 	stw	r5,176(sp)
 4022acc:	d9402c17 	ldw	r5,176(sp)
 4022ad0:	1c47883a 	add	r3,r3,r17
 4022ad4:	10800044 	addi	r2,r2,1
 4022ad8:	41400015 	stw	r5,0(r8)
 4022adc:	44400115 	stw	r17,4(r8)
 4022ae0:	d8c02015 	stw	r3,128(sp)
 4022ae4:	d8801f15 	stw	r2,124(sp)
 4022ae8:	010001c4 	movi	r4,7
 4022aec:	20bec816 	blt	r4,r2,4022610 <__flash_rwdata_start+0xffff1ad8>
 4022af0:	42000204 	addi	r8,r8,8
 4022af4:	003ecd06 	br	402262c <__flash_rwdata_start+0xffff1af4>
 4022af8:	d9002a17 	ldw	r4,168(sp)
 4022afc:	d8002785 	stb	zero,158(sp)
 4022b00:	203d2d16 	blt	r4,zero,4021fb8 <__flash_rwdata_start+0xffff1480>
 4022b04:	00bfdfc4 	movi	r2,-129
 4022b08:	90a4703a 	and	r18,r18,r2
 4022b0c:	003a6106 	br	4021494 <__flash_rwdata_start+0xffff095c>
 4022b10:	01000034 	movhi	r4,0
 4022b14:	21006484 	addi	r4,r4,402
 4022b18:	d9002c15 	stw	r4,176(sp)
 4022b1c:	003bea06 	br	4021ac8 <__flash_rwdata_start+0xffff0f90>
 4022b20:	d9002d17 	ldw	r4,180(sp)
 4022b24:	d9801e04 	addi	r6,sp,120
 4022b28:	b80b883a 	mov	r5,r23
 4022b2c:	40289100 	call	4028910 <__sprint_r>
 4022b30:	103a7b1e 	bne	r2,zero,4021520 <__flash_rwdata_start+0xffff09e8>
 4022b34:	d8c02017 	ldw	r3,128(sp)
 4022b38:	da000404 	addi	r8,sp,16
 4022b3c:	003d4106 	br	4022044 <__flash_rwdata_start+0xffff150c>
 4022b40:	d8801f17 	ldw	r2,124(sp)
 4022b44:	01400034 	movhi	r5,0
 4022b48:	01000044 	movi	r4,1
 4022b4c:	18c00044 	addi	r3,r3,1
 4022b50:	10800044 	addi	r2,r2,1
 4022b54:	29406404 	addi	r5,r5,400
 4022b58:	41000115 	stw	r4,4(r8)
 4022b5c:	41400015 	stw	r5,0(r8)
 4022b60:	d8c02015 	stw	r3,128(sp)
 4022b64:	d8801f15 	stw	r2,124(sp)
 4022b68:	010001c4 	movi	r4,7
 4022b6c:	20805c16 	blt	r4,r2,4022ce0 <___vfprintf_internal_r+0x1bd0>
 4022b70:	42000204 	addi	r8,r8,8
 4022b74:	8800041e 	bne	r17,zero,4022b88 <___vfprintf_internal_r+0x1a78>
 4022b78:	d8803317 	ldw	r2,204(sp)
 4022b7c:	1000021e 	bne	r2,zero,4022b88 <___vfprintf_internal_r+0x1a78>
 4022b80:	9080004c 	andi	r2,r18,1
 4022b84:	103be726 	beq	r2,zero,4021b24 <__flash_rwdata_start+0xffff0fec>
 4022b88:	d9003717 	ldw	r4,220(sp)
 4022b8c:	d8801f17 	ldw	r2,124(sp)
 4022b90:	d9403417 	ldw	r5,208(sp)
 4022b94:	20c7883a 	add	r3,r4,r3
 4022b98:	10800044 	addi	r2,r2,1
 4022b9c:	41000115 	stw	r4,4(r8)
 4022ba0:	41400015 	stw	r5,0(r8)
 4022ba4:	d8c02015 	stw	r3,128(sp)
 4022ba8:	d8801f15 	stw	r2,124(sp)
 4022bac:	010001c4 	movi	r4,7
 4022bb0:	20812116 	blt	r4,r2,4023038 <___vfprintf_internal_r+0x1f28>
 4022bb4:	42000204 	addi	r8,r8,8
 4022bb8:	0463c83a 	sub	r17,zero,r17
 4022bbc:	0440730e 	bge	zero,r17,4022d8c <___vfprintf_internal_r+0x1c7c>
 4022bc0:	05800404 	movi	r22,16
 4022bc4:	b440860e 	bge	r22,r17,4022de0 <___vfprintf_internal_r+0x1cd0>
 4022bc8:	01400034 	movhi	r5,0
 4022bcc:	29406484 	addi	r5,r5,402
 4022bd0:	d9402c15 	stw	r5,176(sp)
 4022bd4:	070001c4 	movi	fp,7
 4022bd8:	dcc02d17 	ldw	r19,180(sp)
 4022bdc:	00000306 	br	4022bec <___vfprintf_internal_r+0x1adc>
 4022be0:	42000204 	addi	r8,r8,8
 4022be4:	8c7ffc04 	addi	r17,r17,-16
 4022be8:	b440800e 	bge	r22,r17,4022dec <___vfprintf_internal_r+0x1cdc>
 4022bec:	18c00404 	addi	r3,r3,16
 4022bf0:	10800044 	addi	r2,r2,1
 4022bf4:	45000015 	stw	r20,0(r8)
 4022bf8:	45800115 	stw	r22,4(r8)
 4022bfc:	d8c02015 	stw	r3,128(sp)
 4022c00:	d8801f15 	stw	r2,124(sp)
 4022c04:	e0bff60e 	bge	fp,r2,4022be0 <__flash_rwdata_start+0xffff20a8>
 4022c08:	d9801e04 	addi	r6,sp,120
 4022c0c:	b80b883a 	mov	r5,r23
 4022c10:	9809883a 	mov	r4,r19
 4022c14:	40289100 	call	4028910 <__sprint_r>
 4022c18:	103a411e 	bne	r2,zero,4021520 <__flash_rwdata_start+0xffff09e8>
 4022c1c:	d8c02017 	ldw	r3,128(sp)
 4022c20:	d8801f17 	ldw	r2,124(sp)
 4022c24:	da000404 	addi	r8,sp,16
 4022c28:	003fee06 	br	4022be4 <__flash_rwdata_start+0xffff20ac>
 4022c2c:	00bfffc4 	movi	r2,-1
 4022c30:	003a3f06 	br	4021530 <__flash_rwdata_start+0xffff09f8>
 4022c34:	008011c4 	movi	r2,71
 4022c38:	1440b816 	blt	r2,r17,4022f1c <___vfprintf_internal_r+0x1e0c>
 4022c3c:	04000034 	movhi	r16,0
 4022c40:	84005604 	addi	r16,r16,344
 4022c44:	00c000c4 	movi	r3,3
 4022c48:	00bfdfc4 	movi	r2,-129
 4022c4c:	d8c02915 	stw	r3,164(sp)
 4022c50:	90a4703a 	and	r18,r18,r2
 4022c54:	df002783 	ldbu	fp,158(sp)
 4022c58:	d8c02b15 	stw	r3,172(sp)
 4022c5c:	d8002a15 	stw	zero,168(sp)
 4022c60:	d8003215 	stw	zero,200(sp)
 4022c64:	003b0706 	br	4021884 <__flash_rwdata_start+0xffff0d4c>
 4022c68:	d8c02e17 	ldw	r3,184(sp)
 4022c6c:	1cc00017 	ldw	r19,0(r3)
 4022c70:	18c00104 	addi	r3,r3,4
 4022c74:	d8c02e15 	stw	r3,184(sp)
 4022c78:	982dd7fa 	srai	r22,r19,31
 4022c7c:	b005883a 	mov	r2,r22
 4022c80:	003a7706 	br	4021660 <__flash_rwdata_start+0xffff0b28>
 4022c84:	d8c02e17 	ldw	r3,184(sp)
 4022c88:	d9002f17 	ldw	r4,188(sp)
 4022c8c:	18800017 	ldw	r2,0(r3)
 4022c90:	18c00104 	addi	r3,r3,4
 4022c94:	d8c02e15 	stw	r3,184(sp)
 4022c98:	11000015 	stw	r4,0(r2)
 4022c9c:	00395406 	br	40211f0 <__flash_rwdata_start+0xffff06b8>
 4022ca0:	d9002e17 	ldw	r4,184(sp)
 4022ca4:	002d883a 	mov	r22,zero
 4022ca8:	24c00017 	ldw	r19,0(r4)
 4022cac:	21000104 	addi	r4,r4,4
 4022cb0:	d9002e15 	stw	r4,184(sp)
 4022cb4:	003c0706 	br	4021cd4 <__flash_rwdata_start+0xffff119c>
 4022cb8:	d9402e17 	ldw	r5,184(sp)
 4022cbc:	d8c02a17 	ldw	r3,168(sp)
 4022cc0:	002d883a 	mov	r22,zero
 4022cc4:	28800104 	addi	r2,r5,4
 4022cc8:	2cc0000b 	ldhu	r19,0(r5)
 4022ccc:	183dc10e 	bge	r3,zero,40223d4 <__flash_rwdata_start+0xffff189c>
 4022cd0:	003f7506 	br	4022aa8 <__flash_rwdata_start+0xffff1f70>
 4022cd4:	04000034 	movhi	r16,0
 4022cd8:	84005404 	addi	r16,r16,336
 4022cdc:	003aa706 	br	402177c <__flash_rwdata_start+0xffff0c44>
 4022ce0:	d9002d17 	ldw	r4,180(sp)
 4022ce4:	d9801e04 	addi	r6,sp,120
 4022ce8:	b80b883a 	mov	r5,r23
 4022cec:	40289100 	call	4028910 <__sprint_r>
 4022cf0:	103a0b1e 	bne	r2,zero,4021520 <__flash_rwdata_start+0xffff09e8>
 4022cf4:	dc402617 	ldw	r17,152(sp)
 4022cf8:	d8c02017 	ldw	r3,128(sp)
 4022cfc:	da000404 	addi	r8,sp,16
 4022d00:	003f9c06 	br	4022b74 <__flash_rwdata_start+0xffff203c>
 4022d04:	ac400043 	ldbu	r17,1(r21)
 4022d08:	84000814 	ori	r16,r16,32
 4022d0c:	ad400044 	addi	r21,r21,1
 4022d10:	8c403fcc 	andi	r17,r17,255
 4022d14:	8c40201c 	xori	r17,r17,128
 4022d18:	8c7fe004 	addi	r17,r17,-128
 4022d1c:	00395e06 	br	4021298 <__flash_rwdata_start+0xffff0760>
 4022d20:	d8c02e15 	stw	r3,184(sp)
 4022d24:	0039883a 	mov	fp,zero
 4022d28:	003e3506 	br	4022600 <__flash_rwdata_start+0xffff1ac8>
 4022d2c:	d9002d17 	ldw	r4,180(sp)
 4022d30:	d9801e04 	addi	r6,sp,120
 4022d34:	b80b883a 	mov	r5,r23
 4022d38:	40289100 	call	4028910 <__sprint_r>
 4022d3c:	1039f81e 	bne	r2,zero,4021520 <__flash_rwdata_start+0xffff09e8>
 4022d40:	d8c02017 	ldw	r3,128(sp)
 4022d44:	da000404 	addi	r8,sp,16
 4022d48:	003cd006 	br	402208c <__flash_rwdata_start+0xffff1554>
 4022d4c:	8009883a 	mov	r4,r16
 4022d50:	df003d15 	stw	fp,244(sp)
 4022d54:	40210780 	call	4021078 <strlen>
 4022d58:	d8802b15 	stw	r2,172(sp)
 4022d5c:	da003d17 	ldw	r8,244(sp)
 4022d60:	103c200e 	bge	r2,zero,4021de4 <__flash_rwdata_start+0xffff12ac>
 4022d64:	0005883a 	mov	r2,zero
 4022d68:	003c1e06 	br	4021de4 <__flash_rwdata_start+0xffff12ac>
 4022d6c:	d9002d17 	ldw	r4,180(sp)
 4022d70:	d9801e04 	addi	r6,sp,120
 4022d74:	b80b883a 	mov	r5,r23
 4022d78:	40289100 	call	4028910 <__sprint_r>
 4022d7c:	1039e81e 	bne	r2,zero,4021520 <__flash_rwdata_start+0xffff09e8>
 4022d80:	d8c02017 	ldw	r3,128(sp)
 4022d84:	d8801f17 	ldw	r2,124(sp)
 4022d88:	da000404 	addi	r8,sp,16
 4022d8c:	d9403317 	ldw	r5,204(sp)
 4022d90:	10800044 	addi	r2,r2,1
 4022d94:	44000015 	stw	r16,0(r8)
 4022d98:	28c7883a 	add	r3,r5,r3
 4022d9c:	003b5b06 	br	4021b0c <__flash_rwdata_start+0xffff0fd4>
 4022da0:	01000034 	movhi	r4,0
 4022da4:	21006884 	addi	r4,r4,418
 4022da8:	d9003515 	stw	r4,212(sp)
 4022dac:	003af206 	br	4021978 <__flash_rwdata_start+0xffff0e40>
 4022db0:	013fffc4 	movi	r4,-1
 4022db4:	003a0806 	br	40215d8 <__flash_rwdata_start+0xffff0aa0>
 4022db8:	0023883a 	mov	r17,zero
 4022dbc:	003d9d06 	br	4022434 <__flash_rwdata_start+0xffff18fc>
 4022dc0:	d9002d17 	ldw	r4,180(sp)
 4022dc4:	d9801e04 	addi	r6,sp,120
 4022dc8:	b80b883a 	mov	r5,r23
 4022dcc:	40289100 	call	4028910 <__sprint_r>
 4022dd0:	1039d31e 	bne	r2,zero,4021520 <__flash_rwdata_start+0xffff09e8>
 4022dd4:	d8c02017 	ldw	r3,128(sp)
 4022dd8:	da000404 	addi	r8,sp,16
 4022ddc:	003d9406 	br	4022430 <__flash_rwdata_start+0xffff18f8>
 4022de0:	01000034 	movhi	r4,0
 4022de4:	21006484 	addi	r4,r4,402
 4022de8:	d9002c15 	stw	r4,176(sp)
 4022dec:	d9002c17 	ldw	r4,176(sp)
 4022df0:	1c47883a 	add	r3,r3,r17
 4022df4:	10800044 	addi	r2,r2,1
 4022df8:	41000015 	stw	r4,0(r8)
 4022dfc:	44400115 	stw	r17,4(r8)
 4022e00:	d8c02015 	stw	r3,128(sp)
 4022e04:	d8801f15 	stw	r2,124(sp)
 4022e08:	010001c4 	movi	r4,7
 4022e0c:	20bfd716 	blt	r4,r2,4022d6c <__flash_rwdata_start+0xffff2234>
 4022e10:	42000204 	addi	r8,r8,8
 4022e14:	003fdd06 	br	4022d8c <__flash_rwdata_start+0xffff2254>
 4022e18:	d9002d17 	ldw	r4,180(sp)
 4022e1c:	d9801e04 	addi	r6,sp,120
 4022e20:	b80b883a 	mov	r5,r23
 4022e24:	40289100 	call	4028910 <__sprint_r>
 4022e28:	1039bd1e 	bne	r2,zero,4021520 <__flash_rwdata_start+0xffff09e8>
 4022e2c:	d8802617 	ldw	r2,152(sp)
 4022e30:	d8c02017 	ldw	r3,128(sp)
 4022e34:	da000404 	addi	r8,sp,16
 4022e38:	003e1006 	br	402267c <__flash_rwdata_start+0xffff1b44>
 4022e3c:	00800044 	movi	r2,1
 4022e40:	10803fcc 	andi	r2,r2,255
 4022e44:	00c00044 	movi	r3,1
 4022e48:	10fa0d26 	beq	r2,r3,4021680 <__flash_rwdata_start+0xffff0b48>
 4022e4c:	00c00084 	movi	r3,2
 4022e50:	10fbaf26 	beq	r2,r3,4021d10 <__flash_rwdata_start+0xffff11d8>
 4022e54:	003a6d06 	br	402180c <__flash_rwdata_start+0xffff0cd4>
 4022e58:	01000034 	movhi	r4,0
 4022e5c:	21006884 	addi	r4,r4,418
 4022e60:	d9003515 	stw	r4,212(sp)
 4022e64:	003b5406 	br	4021bb8 <__flash_rwdata_start+0xffff1080>
 4022e68:	d8802a17 	ldw	r2,168(sp)
 4022e6c:	00c00184 	movi	r3,6
 4022e70:	1880012e 	bgeu	r3,r2,4022e78 <___vfprintf_internal_r+0x1d68>
 4022e74:	1805883a 	mov	r2,r3
 4022e78:	d8802b15 	stw	r2,172(sp)
 4022e7c:	1000ef16 	blt	r2,zero,402323c <___vfprintf_internal_r+0x212c>
 4022e80:	04000034 	movhi	r16,0
 4022e84:	d8802915 	stw	r2,164(sp)
 4022e88:	dcc02e15 	stw	r19,184(sp)
 4022e8c:	d8002a15 	stw	zero,168(sp)
 4022e90:	d8003215 	stw	zero,200(sp)
 4022e94:	84006204 	addi	r16,r16,392
 4022e98:	0039883a 	mov	fp,zero
 4022e9c:	003a8006 	br	40218a0 <__flash_rwdata_start+0xffff0d68>
 4022ea0:	0021883a 	mov	r16,zero
 4022ea4:	003e0706 	br	40226c4 <__flash_rwdata_start+0xffff1b8c>
 4022ea8:	d9002d17 	ldw	r4,180(sp)
 4022eac:	d9801e04 	addi	r6,sp,120
 4022eb0:	b80b883a 	mov	r5,r23
 4022eb4:	40289100 	call	4028910 <__sprint_r>
 4022eb8:	1039991e 	bne	r2,zero,4021520 <__flash_rwdata_start+0xffff09e8>
 4022ebc:	d8802617 	ldw	r2,152(sp)
 4022ec0:	d9403317 	ldw	r5,204(sp)
 4022ec4:	d8c02017 	ldw	r3,128(sp)
 4022ec8:	da000404 	addi	r8,sp,16
 4022ecc:	2885c83a 	sub	r2,r5,r2
 4022ed0:	003dfb06 	br	40226c0 <__flash_rwdata_start+0xffff1b88>
 4022ed4:	9080004c 	andi	r2,r18,1
 4022ed8:	103e8f1e 	bne	r2,zero,4022918 <__flash_rwdata_start+0xffff1de0>
 4022edc:	d8802117 	ldw	r2,132(sp)
 4022ee0:	003e9e06 	br	402295c <__flash_rwdata_start+0xffff1e24>
 4022ee4:	1025883a 	mov	r18,r2
 4022ee8:	0039883a 	mov	fp,zero
 4022eec:	00800084 	movi	r2,2
 4022ef0:	003fd306 	br	4022e40 <__flash_rwdata_start+0xffff2308>
 4022ef4:	07000b44 	movi	fp,45
 4022ef8:	df002785 	stb	fp,158(sp)
 4022efc:	003a1b06 	br	402176c <__flash_rwdata_start+0xffff0c34>
 4022f00:	00c00b44 	movi	r3,45
 4022f04:	d8c02785 	stb	r3,158(sp)
 4022f08:	d8802915 	stw	r2,164(sp)
 4022f0c:	dc802c17 	ldw	r18,176(sp)
 4022f10:	d8002a15 	stw	zero,168(sp)
 4022f14:	07000b44 	movi	fp,45
 4022f18:	003a5e06 	br	4021894 <__flash_rwdata_start+0xffff0d5c>
 4022f1c:	04000034 	movhi	r16,0
 4022f20:	84005704 	addi	r16,r16,348
 4022f24:	003f4706 	br	4022c44 <__flash_rwdata_start+0xffff210c>
 4022f28:	d9002e17 	ldw	r4,184(sp)
 4022f2c:	d9402f17 	ldw	r5,188(sp)
 4022f30:	20800017 	ldw	r2,0(r4)
 4022f34:	21000104 	addi	r4,r4,4
 4022f38:	d9002e15 	stw	r4,184(sp)
 4022f3c:	11400015 	stw	r5,0(r2)
 4022f40:	0038ab06 	br	40211f0 <__flash_rwdata_start+0xffff06b8>
 4022f44:	dd802617 	ldw	r22,152(sp)
 4022f48:	00bfff44 	movi	r2,-3
 4022f4c:	b0801c16 	blt	r22,r2,4022fc0 <___vfprintf_internal_r+0x1eb0>
 4022f50:	d9402a17 	ldw	r5,168(sp)
 4022f54:	2d801a16 	blt	r5,r22,4022fc0 <___vfprintf_internal_r+0x1eb0>
 4022f58:	dd803215 	stw	r22,200(sp)
 4022f5c:	003e8906 	br	4022984 <__flash_rwdata_start+0xffff1e4c>
 4022f60:	01000034 	movhi	r4,0
 4022f64:	21006484 	addi	r4,r4,402
 4022f68:	d9002c15 	stw	r4,176(sp)
 4022f6c:	003c9106 	br	40221b4 <__flash_rwdata_start+0xffff167c>
 4022f70:	e005883a 	mov	r2,fp
 4022f74:	003e7906 	br	402295c <__flash_rwdata_start+0xffff1e24>
 4022f78:	d9002a17 	ldw	r4,168(sp)
 4022f7c:	df002783 	ldbu	fp,158(sp)
 4022f80:	dcc02e15 	stw	r19,184(sp)
 4022f84:	d9002915 	stw	r4,164(sp)
 4022f88:	d9002b15 	stw	r4,172(sp)
 4022f8c:	d8002a15 	stw	zero,168(sp)
 4022f90:	d8003215 	stw	zero,200(sp)
 4022f94:	003a3b06 	br	4021884 <__flash_rwdata_start+0xffff0d4c>
 4022f98:	9080004c 	andi	r2,r18,1
 4022f9c:	0039883a 	mov	fp,zero
 4022fa0:	10000426 	beq	r2,zero,4022fb4 <___vfprintf_internal_r+0x1ea4>
 4022fa4:	00800c04 	movi	r2,48
 4022fa8:	dc001dc4 	addi	r16,sp,119
 4022fac:	d8801dc5 	stb	r2,119(sp)
 4022fb0:	003b6406 	br	4021d44 <__flash_rwdata_start+0xffff120c>
 4022fb4:	d8002b15 	stw	zero,172(sp)
 4022fb8:	dc001e04 	addi	r16,sp,120
 4022fbc:	003a2b06 	br	402186c <__flash_rwdata_start+0xffff0d34>
 4022fc0:	8c7fff84 	addi	r17,r17,-2
 4022fc4:	b5bfffc4 	addi	r22,r22,-1
 4022fc8:	dd802615 	stw	r22,152(sp)
 4022fcc:	dc4022c5 	stb	r17,139(sp)
 4022fd0:	b000bf16 	blt	r22,zero,40232d0 <___vfprintf_internal_r+0x21c0>
 4022fd4:	00800ac4 	movi	r2,43
 4022fd8:	d8802305 	stb	r2,140(sp)
 4022fdc:	00800244 	movi	r2,9
 4022fe0:	15807016 	blt	r2,r22,40231a4 <___vfprintf_internal_r+0x2094>
 4022fe4:	00800c04 	movi	r2,48
 4022fe8:	b5800c04 	addi	r22,r22,48
 4022fec:	d8802345 	stb	r2,141(sp)
 4022ff0:	dd802385 	stb	r22,142(sp)
 4022ff4:	d88023c4 	addi	r2,sp,143
 4022ff8:	df0022c4 	addi	fp,sp,139
 4022ffc:	d8c03317 	ldw	r3,204(sp)
 4023000:	1739c83a 	sub	fp,r2,fp
 4023004:	d9003317 	ldw	r4,204(sp)
 4023008:	e0c7883a 	add	r3,fp,r3
 402300c:	df003a15 	stw	fp,232(sp)
 4023010:	d8c02b15 	stw	r3,172(sp)
 4023014:	00800044 	movi	r2,1
 4023018:	1100b30e 	bge	r2,r4,40232e8 <___vfprintf_internal_r+0x21d8>
 402301c:	d8c02b17 	ldw	r3,172(sp)
 4023020:	18c00044 	addi	r3,r3,1
 4023024:	d8c02b15 	stw	r3,172(sp)
 4023028:	1805883a 	mov	r2,r3
 402302c:	1800ac16 	blt	r3,zero,40232e0 <___vfprintf_internal_r+0x21d0>
 4023030:	d8003215 	stw	zero,200(sp)
 4023034:	003e5d06 	br	40229ac <__flash_rwdata_start+0xffff1e74>
 4023038:	d9002d17 	ldw	r4,180(sp)
 402303c:	d9801e04 	addi	r6,sp,120
 4023040:	b80b883a 	mov	r5,r23
 4023044:	40289100 	call	4028910 <__sprint_r>
 4023048:	1039351e 	bne	r2,zero,4021520 <__flash_rwdata_start+0xffff09e8>
 402304c:	dc402617 	ldw	r17,152(sp)
 4023050:	d8c02017 	ldw	r3,128(sp)
 4023054:	d8801f17 	ldw	r2,124(sp)
 4023058:	da000404 	addi	r8,sp,16
 402305c:	003ed606 	br	4022bb8 <__flash_rwdata_start+0xffff2080>
 4023060:	182b883a 	mov	r21,r3
 4023064:	d8002a15 	stw	zero,168(sp)
 4023068:	00388c06 	br	402129c <__flash_rwdata_start+0xffff0764>
 402306c:	d8802a17 	ldw	r2,168(sp)
 4023070:	103e071e 	bne	r2,zero,4022890 <__flash_rwdata_start+0xffff1d58>
 4023074:	dc002a15 	stw	r16,168(sp)
 4023078:	003e0506 	br	4022890 <__flash_rwdata_start+0xffff1d58>
 402307c:	d9002a17 	ldw	r4,168(sp)
 4023080:	20c00044 	addi	r3,r4,1
 4023084:	003e0f06 	br	40228c4 <__flash_rwdata_start+0xffff1d8c>
 4023088:	01400184 	movi	r5,6
 402308c:	d9402a15 	stw	r5,168(sp)
 4023090:	003dff06 	br	4022890 <__flash_rwdata_start+0xffff1d58>
 4023094:	d8802104 	addi	r2,sp,132
 4023098:	d8800315 	stw	r2,12(sp)
 402309c:	d8802504 	addi	r2,sp,148
 40230a0:	d8800215 	stw	r2,8(sp)
 40230a4:	d8802604 	addi	r2,sp,152
 40230a8:	d8800115 	stw	r2,4(sp)
 40230ac:	d8802a17 	ldw	r2,168(sp)
 40230b0:	d9403617 	ldw	r5,216(sp)
 40230b4:	d9002d17 	ldw	r4,180(sp)
 40230b8:	d8800015 	stw	r2,0(sp)
 40230bc:	01c000c4 	movi	r7,3
 40230c0:	980d883a 	mov	r6,r19
 40230c4:	da003d15 	stw	r8,244(sp)
 40230c8:	40238400 	call	4023840 <_dtoa_r>
 40230cc:	d8c02a17 	ldw	r3,168(sp)
 40230d0:	da003d17 	ldw	r8,244(sp)
 40230d4:	1021883a 	mov	r16,r2
 40230d8:	10f9883a 	add	fp,r2,r3
 40230dc:	81000007 	ldb	r4,0(r16)
 40230e0:	00800c04 	movi	r2,48
 40230e4:	20805e26 	beq	r4,r2,4023260 <___vfprintf_internal_r+0x2150>
 40230e8:	d8c02617 	ldw	r3,152(sp)
 40230ec:	e0f9883a 	add	fp,fp,r3
 40230f0:	003e0a06 	br	402291c <__flash_rwdata_start+0xffff1de4>
 40230f4:	00c00b44 	movi	r3,45
 40230f8:	24e0003c 	xorhi	r19,r4,32768
 40230fc:	d8c02905 	stb	r3,164(sp)
 4023100:	003de906 	br	40228a8 <__flash_rwdata_start+0xffff1d70>
 4023104:	d8c03217 	ldw	r3,200(sp)
 4023108:	00c07a0e 	bge	zero,r3,40232f4 <___vfprintf_internal_r+0x21e4>
 402310c:	00800044 	movi	r2,1
 4023110:	d9003317 	ldw	r4,204(sp)
 4023114:	1105883a 	add	r2,r2,r4
 4023118:	d8802b15 	stw	r2,172(sp)
 402311c:	10004e16 	blt	r2,zero,4023258 <___vfprintf_internal_r+0x2148>
 4023120:	044019c4 	movi	r17,103
 4023124:	003e2106 	br	40229ac <__flash_rwdata_start+0xffff1e74>
 4023128:	d9002a17 	ldw	r4,168(sp)
 402312c:	d8802104 	addi	r2,sp,132
 4023130:	d8800315 	stw	r2,12(sp)
 4023134:	d9000015 	stw	r4,0(sp)
 4023138:	d8802504 	addi	r2,sp,148
 402313c:	d9403617 	ldw	r5,216(sp)
 4023140:	d9002d17 	ldw	r4,180(sp)
 4023144:	d8800215 	stw	r2,8(sp)
 4023148:	d8802604 	addi	r2,sp,152
 402314c:	d8800115 	stw	r2,4(sp)
 4023150:	01c000c4 	movi	r7,3
 4023154:	980d883a 	mov	r6,r19
 4023158:	da003d15 	stw	r8,244(sp)
 402315c:	40238400 	call	4023840 <_dtoa_r>
 4023160:	d8c02a17 	ldw	r3,168(sp)
 4023164:	da003d17 	ldw	r8,244(sp)
 4023168:	1021883a 	mov	r16,r2
 402316c:	00801184 	movi	r2,70
 4023170:	80f9883a 	add	fp,r16,r3
 4023174:	88bfd926 	beq	r17,r2,40230dc <__flash_rwdata_start+0xffff25a4>
 4023178:	003de806 	br	402291c <__flash_rwdata_start+0xffff1de4>
 402317c:	d9002a17 	ldw	r4,168(sp)
 4023180:	00c04d0e 	bge	zero,r3,40232b8 <___vfprintf_internal_r+0x21a8>
 4023184:	2000441e 	bne	r4,zero,4023298 <___vfprintf_internal_r+0x2188>
 4023188:	9480004c 	andi	r18,r18,1
 402318c:	9000421e 	bne	r18,zero,4023298 <___vfprintf_internal_r+0x2188>
 4023190:	1805883a 	mov	r2,r3
 4023194:	18006f16 	blt	r3,zero,4023354 <___vfprintf_internal_r+0x2244>
 4023198:	d8c03217 	ldw	r3,200(sp)
 402319c:	d8c02b15 	stw	r3,172(sp)
 40231a0:	003e0206 	br	40229ac <__flash_rwdata_start+0xffff1e74>
 40231a4:	df0022c4 	addi	fp,sp,139
 40231a8:	dc002a15 	stw	r16,168(sp)
 40231ac:	4027883a 	mov	r19,r8
 40231b0:	e021883a 	mov	r16,fp
 40231b4:	b009883a 	mov	r4,r22
 40231b8:	01400284 	movi	r5,10
 40231bc:	4020bfc0 	call	4020bfc <__modsi3>
 40231c0:	10800c04 	addi	r2,r2,48
 40231c4:	843fffc4 	addi	r16,r16,-1
 40231c8:	b009883a 	mov	r4,r22
 40231cc:	01400284 	movi	r5,10
 40231d0:	80800005 	stb	r2,0(r16)
 40231d4:	4020b780 	call	4020b78 <__divsi3>
 40231d8:	102d883a 	mov	r22,r2
 40231dc:	00800244 	movi	r2,9
 40231e0:	15bff416 	blt	r2,r22,40231b4 <__flash_rwdata_start+0xffff267c>
 40231e4:	9811883a 	mov	r8,r19
 40231e8:	b0800c04 	addi	r2,r22,48
 40231ec:	8027883a 	mov	r19,r16
 40231f0:	997fffc4 	addi	r5,r19,-1
 40231f4:	98bfffc5 	stb	r2,-1(r19)
 40231f8:	dc002a17 	ldw	r16,168(sp)
 40231fc:	2f006d2e 	bgeu	r5,fp,40233b4 <___vfprintf_internal_r+0x22a4>
 4023200:	d9c02384 	addi	r7,sp,142
 4023204:	3ccfc83a 	sub	r7,r7,r19
 4023208:	d9002344 	addi	r4,sp,141
 402320c:	e1cf883a 	add	r7,fp,r7
 4023210:	00000106 	br	4023218 <___vfprintf_internal_r+0x2108>
 4023214:	28800003 	ldbu	r2,0(r5)
 4023218:	20800005 	stb	r2,0(r4)
 402321c:	21000044 	addi	r4,r4,1
 4023220:	29400044 	addi	r5,r5,1
 4023224:	393ffb1e 	bne	r7,r4,4023214 <__flash_rwdata_start+0xffff26dc>
 4023228:	d8802304 	addi	r2,sp,140
 402322c:	14c5c83a 	sub	r2,r2,r19
 4023230:	d8c02344 	addi	r3,sp,141
 4023234:	1885883a 	add	r2,r3,r2
 4023238:	003f7006 	br	4022ffc <__flash_rwdata_start+0xffff24c4>
 402323c:	0005883a 	mov	r2,zero
 4023240:	003f0f06 	br	4022e80 <__flash_rwdata_start+0xffff2348>
 4023244:	d8c03217 	ldw	r3,200(sp)
 4023248:	18c00044 	addi	r3,r3,1
 402324c:	d8c02b15 	stw	r3,172(sp)
 4023250:	1805883a 	mov	r2,r3
 4023254:	183fb20e 	bge	r3,zero,4023120 <__flash_rwdata_start+0xffff25e8>
 4023258:	0005883a 	mov	r2,zero
 402325c:	003fb006 	br	4023120 <__flash_rwdata_start+0xffff25e8>
 4023260:	d9003617 	ldw	r4,216(sp)
 4023264:	000d883a 	mov	r6,zero
 4023268:	000f883a 	mov	r7,zero
 402326c:	980b883a 	mov	r5,r19
 4023270:	d8c03c15 	stw	r3,240(sp)
 4023274:	da003d15 	stw	r8,244(sp)
 4023278:	402c7a00 	call	402c7a0 <__eqdf2>
 402327c:	d8c03c17 	ldw	r3,240(sp)
 4023280:	da003d17 	ldw	r8,244(sp)
 4023284:	103f9826 	beq	r2,zero,40230e8 <__flash_rwdata_start+0xffff25b0>
 4023288:	00800044 	movi	r2,1
 402328c:	10c7c83a 	sub	r3,r2,r3
 4023290:	d8c02615 	stw	r3,152(sp)
 4023294:	003f9506 	br	40230ec <__flash_rwdata_start+0xffff25b4>
 4023298:	d9002a17 	ldw	r4,168(sp)
 402329c:	d8c03217 	ldw	r3,200(sp)
 40232a0:	20800044 	addi	r2,r4,1
 40232a4:	1885883a 	add	r2,r3,r2
 40232a8:	d8802b15 	stw	r2,172(sp)
 40232ac:	103dbf0e 	bge	r2,zero,40229ac <__flash_rwdata_start+0xffff1e74>
 40232b0:	0005883a 	mov	r2,zero
 40232b4:	003dbd06 	br	40229ac <__flash_rwdata_start+0xffff1e74>
 40232b8:	2000201e 	bne	r4,zero,402333c <___vfprintf_internal_r+0x222c>
 40232bc:	9480004c 	andi	r18,r18,1
 40232c0:	90001e1e 	bne	r18,zero,402333c <___vfprintf_internal_r+0x222c>
 40232c4:	00800044 	movi	r2,1
 40232c8:	d8802b15 	stw	r2,172(sp)
 40232cc:	003db706 	br	40229ac <__flash_rwdata_start+0xffff1e74>
 40232d0:	00800b44 	movi	r2,45
 40232d4:	05adc83a 	sub	r22,zero,r22
 40232d8:	d8802305 	stb	r2,140(sp)
 40232dc:	003f3f06 	br	4022fdc <__flash_rwdata_start+0xffff24a4>
 40232e0:	0005883a 	mov	r2,zero
 40232e4:	003f5206 	br	4023030 <__flash_rwdata_start+0xffff24f8>
 40232e8:	90a4703a 	and	r18,r18,r2
 40232ec:	903f4e26 	beq	r18,zero,4023028 <__flash_rwdata_start+0xffff24f0>
 40232f0:	003f4a06 	br	402301c <__flash_rwdata_start+0xffff24e4>
 40232f4:	00800084 	movi	r2,2
 40232f8:	10c5c83a 	sub	r2,r2,r3
 40232fc:	003f8406 	br	4023110 <__flash_rwdata_start+0xffff25d8>
 4023300:	d9402e17 	ldw	r5,184(sp)
 4023304:	d9002e17 	ldw	r4,184(sp)
 4023308:	ac400043 	ldbu	r17,1(r21)
 402330c:	29400017 	ldw	r5,0(r5)
 4023310:	20800104 	addi	r2,r4,4
 4023314:	d8802e15 	stw	r2,184(sp)
 4023318:	d9402a15 	stw	r5,168(sp)
 402331c:	182b883a 	mov	r21,r3
 4023320:	283e7b0e 	bge	r5,zero,4022d10 <__flash_rwdata_start+0xffff21d8>
 4023324:	8c403fcc 	andi	r17,r17,255
 4023328:	017fffc4 	movi	r5,-1
 402332c:	8c40201c 	xori	r17,r17,128
 4023330:	d9402a15 	stw	r5,168(sp)
 4023334:	8c7fe004 	addi	r17,r17,-128
 4023338:	0037d706 	br	4021298 <__flash_rwdata_start+0xffff0760>
 402333c:	d8c02a17 	ldw	r3,168(sp)
 4023340:	18c00084 	addi	r3,r3,2
 4023344:	d8c02b15 	stw	r3,172(sp)
 4023348:	1805883a 	mov	r2,r3
 402334c:	183d970e 	bge	r3,zero,40229ac <__flash_rwdata_start+0xffff1e74>
 4023350:	003fd706 	br	40232b0 <__flash_rwdata_start+0xffff2778>
 4023354:	0005883a 	mov	r2,zero
 4023358:	003f8f06 	br	4023198 <__flash_rwdata_start+0xffff2660>
 402335c:	9080004c 	andi	r2,r18,1
 4023360:	103f821e 	bne	r2,zero,402316c <__flash_rwdata_start+0xffff2634>
 4023364:	d8802117 	ldw	r2,132(sp)
 4023368:	1405c83a 	sub	r2,r2,r16
 402336c:	d8803315 	stw	r2,204(sp)
 4023370:	b47ef426 	beq	r22,r17,4022f44 <__flash_rwdata_start+0xffff240c>
 4023374:	dd802617 	ldw	r22,152(sp)
 4023378:	003f1206 	br	4022fc4 <__flash_rwdata_start+0xffff248c>
 402337c:	d8c02b03 	ldbu	r3,172(sp)
 4023380:	d8c02785 	stb	r3,158(sp)
 4023384:	0038df06 	br	4021704 <__flash_rwdata_start+0xffff0bcc>
 4023388:	d8c02b03 	ldbu	r3,172(sp)
 402338c:	d8c02785 	stb	r3,158(sp)
 4023390:	0038aa06 	br	402163c <__flash_rwdata_start+0xffff0b04>
 4023394:	d8c02b03 	ldbu	r3,172(sp)
 4023398:	d8c02785 	stb	r3,158(sp)
 402339c:	003a4306 	br	4021cac <__flash_rwdata_start+0xffff1174>
 40233a0:	d8c02b03 	ldbu	r3,172(sp)
 40233a4:	d8c02785 	stb	r3,158(sp)
 40233a8:	003af506 	br	4021f80 <__flash_rwdata_start+0xffff1448>
 40233ac:	0005883a 	mov	r2,zero
 40233b0:	003d7b06 	br	40229a0 <__flash_rwdata_start+0xffff1e68>
 40233b4:	d8802344 	addi	r2,sp,141
 40233b8:	003f1006 	br	4022ffc <__flash_rwdata_start+0xffff24c4>
 40233bc:	d8c02b03 	ldbu	r3,172(sp)
 40233c0:	d8c02785 	stb	r3,158(sp)
 40233c4:	0038fd06 	br	40217bc <__flash_rwdata_start+0xffff0c84>
 40233c8:	d8c02b03 	ldbu	r3,172(sp)
 40233cc:	d8c02785 	stb	r3,158(sp)
 40233d0:	003a9706 	br	4021e30 <__flash_rwdata_start+0xffff12f8>
 40233d4:	d8c02b03 	ldbu	r3,172(sp)
 40233d8:	d8c02785 	stb	r3,158(sp)
 40233dc:	003a1806 	br	4021c40 <__flash_rwdata_start+0xffff1108>
 40233e0:	d8c02b03 	ldbu	r3,172(sp)
 40233e4:	d8c02785 	stb	r3,158(sp)
 40233e8:	003abe06 	br	4021ee4 <__flash_rwdata_start+0xffff13ac>

040233ec <__vfprintf_internal>:
 40233ec:	00800034 	movhi	r2,0
 40233f0:	1087bd04 	addi	r2,r2,7924
 40233f4:	300f883a 	mov	r7,r6
 40233f8:	280d883a 	mov	r6,r5
 40233fc:	200b883a 	mov	r5,r4
 4023400:	11000017 	ldw	r4,0(r2)
 4023404:	40211101 	jmpi	4021110 <___vfprintf_internal_r>

04023408 <__sbprintf>:
 4023408:	2880030b 	ldhu	r2,12(r5)
 402340c:	2ac01917 	ldw	r11,100(r5)
 4023410:	2a80038b 	ldhu	r10,14(r5)
 4023414:	2a400717 	ldw	r9,28(r5)
 4023418:	2a000917 	ldw	r8,36(r5)
 402341c:	defee204 	addi	sp,sp,-1144
 4023420:	00c10004 	movi	r3,1024
 4023424:	dc011a15 	stw	r16,1128(sp)
 4023428:	10bfff4c 	andi	r2,r2,65533
 402342c:	2821883a 	mov	r16,r5
 4023430:	d8cb883a 	add	r5,sp,r3
 4023434:	dc811c15 	stw	r18,1136(sp)
 4023438:	dc411b15 	stw	r17,1132(sp)
 402343c:	dfc11d15 	stw	ra,1140(sp)
 4023440:	2025883a 	mov	r18,r4
 4023444:	d881030d 	sth	r2,1036(sp)
 4023448:	dac11915 	stw	r11,1124(sp)
 402344c:	da81038d 	sth	r10,1038(sp)
 4023450:	da410715 	stw	r9,1052(sp)
 4023454:	da010915 	stw	r8,1060(sp)
 4023458:	dec10015 	stw	sp,1024(sp)
 402345c:	dec10415 	stw	sp,1040(sp)
 4023460:	d8c10215 	stw	r3,1032(sp)
 4023464:	d8c10515 	stw	r3,1044(sp)
 4023468:	d8010615 	stw	zero,1048(sp)
 402346c:	40211100 	call	4021110 <___vfprintf_internal_r>
 4023470:	1023883a 	mov	r17,r2
 4023474:	10000416 	blt	r2,zero,4023488 <__sbprintf+0x80>
 4023478:	d9410004 	addi	r5,sp,1024
 402347c:	9009883a 	mov	r4,r18
 4023480:	40250e40 	call	40250e4 <_fflush_r>
 4023484:	10000d1e 	bne	r2,zero,40234bc <__sbprintf+0xb4>
 4023488:	d881030b 	ldhu	r2,1036(sp)
 402348c:	1080100c 	andi	r2,r2,64
 4023490:	10000326 	beq	r2,zero,40234a0 <__sbprintf+0x98>
 4023494:	8080030b 	ldhu	r2,12(r16)
 4023498:	10801014 	ori	r2,r2,64
 402349c:	8080030d 	sth	r2,12(r16)
 40234a0:	8805883a 	mov	r2,r17
 40234a4:	dfc11d17 	ldw	ra,1140(sp)
 40234a8:	dc811c17 	ldw	r18,1136(sp)
 40234ac:	dc411b17 	ldw	r17,1132(sp)
 40234b0:	dc011a17 	ldw	r16,1128(sp)
 40234b4:	dec11e04 	addi	sp,sp,1144
 40234b8:	f800283a 	ret
 40234bc:	047fffc4 	movi	r17,-1
 40234c0:	003ff106 	br	4023488 <__flash_rwdata_start+0xffff2950>

040234c4 <__swsetup_r>:
 40234c4:	00800034 	movhi	r2,0
 40234c8:	defffd04 	addi	sp,sp,-12
 40234cc:	1087bd04 	addi	r2,r2,7924
 40234d0:	dc400115 	stw	r17,4(sp)
 40234d4:	2023883a 	mov	r17,r4
 40234d8:	11000017 	ldw	r4,0(r2)
 40234dc:	dc000015 	stw	r16,0(sp)
 40234e0:	dfc00215 	stw	ra,8(sp)
 40234e4:	2821883a 	mov	r16,r5
 40234e8:	20000226 	beq	r4,zero,40234f4 <__swsetup_r+0x30>
 40234ec:	20800e17 	ldw	r2,56(r4)
 40234f0:	10003126 	beq	r2,zero,40235b8 <__swsetup_r+0xf4>
 40234f4:	8080030b 	ldhu	r2,12(r16)
 40234f8:	10c0020c 	andi	r3,r2,8
 40234fc:	1009883a 	mov	r4,r2
 4023500:	18000f26 	beq	r3,zero,4023540 <__swsetup_r+0x7c>
 4023504:	80c00417 	ldw	r3,16(r16)
 4023508:	18001526 	beq	r3,zero,4023560 <__swsetup_r+0x9c>
 402350c:	1100004c 	andi	r4,r2,1
 4023510:	20001c1e 	bne	r4,zero,4023584 <__swsetup_r+0xc0>
 4023514:	1080008c 	andi	r2,r2,2
 4023518:	1000291e 	bne	r2,zero,40235c0 <__swsetup_r+0xfc>
 402351c:	80800517 	ldw	r2,20(r16)
 4023520:	80800215 	stw	r2,8(r16)
 4023524:	18001c26 	beq	r3,zero,4023598 <__swsetup_r+0xd4>
 4023528:	0005883a 	mov	r2,zero
 402352c:	dfc00217 	ldw	ra,8(sp)
 4023530:	dc400117 	ldw	r17,4(sp)
 4023534:	dc000017 	ldw	r16,0(sp)
 4023538:	dec00304 	addi	sp,sp,12
 402353c:	f800283a 	ret
 4023540:	2080040c 	andi	r2,r4,16
 4023544:	10002e26 	beq	r2,zero,4023600 <__swsetup_r+0x13c>
 4023548:	2080010c 	andi	r2,r4,4
 402354c:	10001e1e 	bne	r2,zero,40235c8 <__swsetup_r+0x104>
 4023550:	80c00417 	ldw	r3,16(r16)
 4023554:	20800214 	ori	r2,r4,8
 4023558:	8080030d 	sth	r2,12(r16)
 402355c:	183feb1e 	bne	r3,zero,402350c <__flash_rwdata_start+0xffff29d4>
 4023560:	1100a00c 	andi	r4,r2,640
 4023564:	01408004 	movi	r5,512
 4023568:	217fe826 	beq	r4,r5,402350c <__flash_rwdata_start+0xffff29d4>
 402356c:	800b883a 	mov	r5,r16
 4023570:	8809883a 	mov	r4,r17
 4023574:	40260800 	call	4026080 <__smakebuf_r>
 4023578:	8080030b 	ldhu	r2,12(r16)
 402357c:	80c00417 	ldw	r3,16(r16)
 4023580:	003fe206 	br	402350c <__flash_rwdata_start+0xffff29d4>
 4023584:	80800517 	ldw	r2,20(r16)
 4023588:	80000215 	stw	zero,8(r16)
 402358c:	0085c83a 	sub	r2,zero,r2
 4023590:	80800615 	stw	r2,24(r16)
 4023594:	183fe41e 	bne	r3,zero,4023528 <__flash_rwdata_start+0xffff29f0>
 4023598:	80c0030b 	ldhu	r3,12(r16)
 402359c:	0005883a 	mov	r2,zero
 40235a0:	1900200c 	andi	r4,r3,128
 40235a4:	203fe126 	beq	r4,zero,402352c <__flash_rwdata_start+0xffff29f4>
 40235a8:	18c01014 	ori	r3,r3,64
 40235ac:	80c0030d 	sth	r3,12(r16)
 40235b0:	00bfffc4 	movi	r2,-1
 40235b4:	003fdd06 	br	402352c <__flash_rwdata_start+0xffff29f4>
 40235b8:	40254d00 	call	40254d0 <__sinit>
 40235bc:	003fcd06 	br	40234f4 <__flash_rwdata_start+0xffff29bc>
 40235c0:	0005883a 	mov	r2,zero
 40235c4:	003fd606 	br	4023520 <__flash_rwdata_start+0xffff29e8>
 40235c8:	81400c17 	ldw	r5,48(r16)
 40235cc:	28000626 	beq	r5,zero,40235e8 <__swsetup_r+0x124>
 40235d0:	80801004 	addi	r2,r16,64
 40235d4:	28800326 	beq	r5,r2,40235e4 <__swsetup_r+0x120>
 40235d8:	8809883a 	mov	r4,r17
 40235dc:	40256440 	call	4025644 <_free_r>
 40235e0:	8100030b 	ldhu	r4,12(r16)
 40235e4:	80000c15 	stw	zero,48(r16)
 40235e8:	80c00417 	ldw	r3,16(r16)
 40235ec:	00bff6c4 	movi	r2,-37
 40235f0:	1108703a 	and	r4,r2,r4
 40235f4:	80000115 	stw	zero,4(r16)
 40235f8:	80c00015 	stw	r3,0(r16)
 40235fc:	003fd506 	br	4023554 <__flash_rwdata_start+0xffff2a1c>
 4023600:	00800244 	movi	r2,9
 4023604:	88800015 	stw	r2,0(r17)
 4023608:	20801014 	ori	r2,r4,64
 402360c:	8080030d 	sth	r2,12(r16)
 4023610:	00bfffc4 	movi	r2,-1
 4023614:	003fc506 	br	402352c <__flash_rwdata_start+0xffff29f4>

04023618 <quorem>:
 4023618:	defff204 	addi	sp,sp,-56
 402361c:	ddc00b15 	stw	r23,44(sp)
 4023620:	20800417 	ldw	r2,16(r4)
 4023624:	2dc00417 	ldw	r23,16(r5)
 4023628:	dfc00d15 	stw	ra,52(sp)
 402362c:	df000c15 	stw	fp,48(sp)
 4023630:	dd800a15 	stw	r22,40(sp)
 4023634:	dd400915 	stw	r21,36(sp)
 4023638:	dd000815 	stw	r20,32(sp)
 402363c:	dcc00715 	stw	r19,28(sp)
 4023640:	dc800615 	stw	r18,24(sp)
 4023644:	dc400515 	stw	r17,20(sp)
 4023648:	dc000415 	stw	r16,16(sp)
 402364c:	15c07a16 	blt	r2,r23,4023838 <quorem+0x220>
 4023650:	bdffffc4 	addi	r23,r23,-1
 4023654:	bde9883a 	add	r20,r23,r23
 4023658:	28c00504 	addi	r3,r5,20
 402365c:	a529883a 	add	r20,r20,r20
 4023660:	1d39883a 	add	fp,r3,r20
 4023664:	24c00504 	addi	r19,r4,20
 4023668:	d9400215 	stw	r5,8(sp)
 402366c:	9d29883a 	add	r20,r19,r20
 4023670:	e1400017 	ldw	r5,0(fp)
 4023674:	d9000015 	stw	r4,0(sp)
 4023678:	a1000017 	ldw	r4,0(r20)
 402367c:	29400044 	addi	r5,r5,1
 4023680:	d8c00115 	stw	r3,4(sp)
 4023684:	dd000315 	stw	r20,12(sp)
 4023688:	4020c700 	call	4020c70 <__udivsi3>
 402368c:	1025883a 	mov	r18,r2
 4023690:	10003026 	beq	r2,zero,4023754 <quorem+0x13c>
 4023694:	dc400117 	ldw	r17,4(sp)
 4023698:	9829883a 	mov	r20,r19
 402369c:	002d883a 	mov	r22,zero
 40236a0:	0021883a 	mov	r16,zero
 40236a4:	8d400017 	ldw	r21,0(r17)
 40236a8:	900b883a 	mov	r5,r18
 40236ac:	8c400104 	addi	r17,r17,4
 40236b0:	a93fffcc 	andi	r4,r21,65535
 40236b4:	4020d2c0 	call	4020d2c <__mulsi3>
 40236b8:	a808d43a 	srli	r4,r21,16
 40236bc:	900b883a 	mov	r5,r18
 40236c0:	15ad883a 	add	r22,r2,r22
 40236c4:	4020d2c0 	call	4020d2c <__mulsi3>
 40236c8:	a1000017 	ldw	r4,0(r20)
 40236cc:	b00cd43a 	srli	r6,r22,16
 40236d0:	b0ffffcc 	andi	r3,r22,65535
 40236d4:	217fffcc 	andi	r5,r4,65535
 40236d8:	2c21883a 	add	r16,r5,r16
 40236dc:	80c7c83a 	sub	r3,r16,r3
 40236e0:	2008d43a 	srli	r4,r4,16
 40236e4:	1185883a 	add	r2,r2,r6
 40236e8:	1821d43a 	srai	r16,r3,16
 40236ec:	117fffcc 	andi	r5,r2,65535
 40236f0:	2149c83a 	sub	r4,r4,r5
 40236f4:	2421883a 	add	r16,r4,r16
 40236f8:	8008943a 	slli	r4,r16,16
 40236fc:	18ffffcc 	andi	r3,r3,65535
 4023700:	102cd43a 	srli	r22,r2,16
 4023704:	20c8b03a 	or	r4,r4,r3
 4023708:	a1000015 	stw	r4,0(r20)
 402370c:	8021d43a 	srai	r16,r16,16
 4023710:	a5000104 	addi	r20,r20,4
 4023714:	e47fe32e 	bgeu	fp,r17,40236a4 <__flash_rwdata_start+0xffff2b6c>
 4023718:	d8c00317 	ldw	r3,12(sp)
 402371c:	18800017 	ldw	r2,0(r3)
 4023720:	10000c1e 	bne	r2,zero,4023754 <quorem+0x13c>
 4023724:	18bfff04 	addi	r2,r3,-4
 4023728:	9880082e 	bgeu	r19,r2,402374c <quorem+0x134>
 402372c:	18ffff17 	ldw	r3,-4(r3)
 4023730:	18000326 	beq	r3,zero,4023740 <quorem+0x128>
 4023734:	00000506 	br	402374c <quorem+0x134>
 4023738:	10c00017 	ldw	r3,0(r2)
 402373c:	1800031e 	bne	r3,zero,402374c <quorem+0x134>
 4023740:	10bfff04 	addi	r2,r2,-4
 4023744:	bdffffc4 	addi	r23,r23,-1
 4023748:	98bffb36 	bltu	r19,r2,4023738 <__flash_rwdata_start+0xffff2c00>
 402374c:	d8c00017 	ldw	r3,0(sp)
 4023750:	1dc00415 	stw	r23,16(r3)
 4023754:	d9400217 	ldw	r5,8(sp)
 4023758:	d9000017 	ldw	r4,0(sp)
 402375c:	40277340 	call	4027734 <__mcmp>
 4023760:	10002816 	blt	r2,zero,4023804 <quorem+0x1ec>
 4023764:	dc400117 	ldw	r17,4(sp)
 4023768:	94800044 	addi	r18,r18,1
 402376c:	980d883a 	mov	r6,r19
 4023770:	0007883a 	mov	r3,zero
 4023774:	31000017 	ldw	r4,0(r6)
 4023778:	89400017 	ldw	r5,0(r17)
 402377c:	31800104 	addi	r6,r6,4
 4023780:	20bfffcc 	andi	r2,r4,65535
 4023784:	10c7883a 	add	r3,r2,r3
 4023788:	28bfffcc 	andi	r2,r5,65535
 402378c:	1885c83a 	sub	r2,r3,r2
 4023790:	280ad43a 	srli	r5,r5,16
 4023794:	2008d43a 	srli	r4,r4,16
 4023798:	1007d43a 	srai	r3,r2,16
 402379c:	10bfffcc 	andi	r2,r2,65535
 40237a0:	2149c83a 	sub	r4,r4,r5
 40237a4:	20c9883a 	add	r4,r4,r3
 40237a8:	200a943a 	slli	r5,r4,16
 40237ac:	8c400104 	addi	r17,r17,4
 40237b0:	2007d43a 	srai	r3,r4,16
 40237b4:	2884b03a 	or	r2,r5,r2
 40237b8:	30bfff15 	stw	r2,-4(r6)
 40237bc:	e47fed2e 	bgeu	fp,r17,4023774 <__flash_rwdata_start+0xffff2c3c>
 40237c0:	bdc5883a 	add	r2,r23,r23
 40237c4:	1085883a 	add	r2,r2,r2
 40237c8:	9887883a 	add	r3,r19,r2
 40237cc:	18800017 	ldw	r2,0(r3)
 40237d0:	10000c1e 	bne	r2,zero,4023804 <quorem+0x1ec>
 40237d4:	18bfff04 	addi	r2,r3,-4
 40237d8:	9880082e 	bgeu	r19,r2,40237fc <quorem+0x1e4>
 40237dc:	18ffff17 	ldw	r3,-4(r3)
 40237e0:	18000326 	beq	r3,zero,40237f0 <quorem+0x1d8>
 40237e4:	00000506 	br	40237fc <quorem+0x1e4>
 40237e8:	10c00017 	ldw	r3,0(r2)
 40237ec:	1800031e 	bne	r3,zero,40237fc <quorem+0x1e4>
 40237f0:	10bfff04 	addi	r2,r2,-4
 40237f4:	bdffffc4 	addi	r23,r23,-1
 40237f8:	98bffb36 	bltu	r19,r2,40237e8 <__flash_rwdata_start+0xffff2cb0>
 40237fc:	d8c00017 	ldw	r3,0(sp)
 4023800:	1dc00415 	stw	r23,16(r3)
 4023804:	9005883a 	mov	r2,r18
 4023808:	dfc00d17 	ldw	ra,52(sp)
 402380c:	df000c17 	ldw	fp,48(sp)
 4023810:	ddc00b17 	ldw	r23,44(sp)
 4023814:	dd800a17 	ldw	r22,40(sp)
 4023818:	dd400917 	ldw	r21,36(sp)
 402381c:	dd000817 	ldw	r20,32(sp)
 4023820:	dcc00717 	ldw	r19,28(sp)
 4023824:	dc800617 	ldw	r18,24(sp)
 4023828:	dc400517 	ldw	r17,20(sp)
 402382c:	dc000417 	ldw	r16,16(sp)
 4023830:	dec00e04 	addi	sp,sp,56
 4023834:	f800283a 	ret
 4023838:	0005883a 	mov	r2,zero
 402383c:	003ff206 	br	4023808 <__flash_rwdata_start+0xffff2cd0>

04023840 <_dtoa_r>:
 4023840:	20801017 	ldw	r2,64(r4)
 4023844:	deffde04 	addi	sp,sp,-136
 4023848:	df002015 	stw	fp,128(sp)
 402384c:	dcc01b15 	stw	r19,108(sp)
 4023850:	dc801a15 	stw	r18,104(sp)
 4023854:	dc401915 	stw	r17,100(sp)
 4023858:	dc001815 	stw	r16,96(sp)
 402385c:	dfc02115 	stw	ra,132(sp)
 4023860:	ddc01f15 	stw	r23,124(sp)
 4023864:	dd801e15 	stw	r22,120(sp)
 4023868:	dd401d15 	stw	r21,116(sp)
 402386c:	dd001c15 	stw	r20,112(sp)
 4023870:	d9c00315 	stw	r7,12(sp)
 4023874:	2039883a 	mov	fp,r4
 4023878:	3023883a 	mov	r17,r6
 402387c:	2825883a 	mov	r18,r5
 4023880:	dc002417 	ldw	r16,144(sp)
 4023884:	3027883a 	mov	r19,r6
 4023888:	10000826 	beq	r2,zero,40238ac <_dtoa_r+0x6c>
 402388c:	21801117 	ldw	r6,68(r4)
 4023890:	00c00044 	movi	r3,1
 4023894:	100b883a 	mov	r5,r2
 4023898:	1986983a 	sll	r3,r3,r6
 402389c:	11800115 	stw	r6,4(r2)
 40238a0:	10c00215 	stw	r3,8(r2)
 40238a4:	4026e580 	call	4026e58 <_Bfree>
 40238a8:	e0001015 	stw	zero,64(fp)
 40238ac:	88002e16 	blt	r17,zero,4023968 <_dtoa_r+0x128>
 40238b0:	80000015 	stw	zero,0(r16)
 40238b4:	889ffc2c 	andhi	r2,r17,32752
 40238b8:	00dffc34 	movhi	r3,32752
 40238bc:	10c01c26 	beq	r2,r3,4023930 <_dtoa_r+0xf0>
 40238c0:	000d883a 	mov	r6,zero
 40238c4:	000f883a 	mov	r7,zero
 40238c8:	9009883a 	mov	r4,r18
 40238cc:	980b883a 	mov	r5,r19
 40238d0:	402c7a00 	call	402c7a0 <__eqdf2>
 40238d4:	10002b1e 	bne	r2,zero,4023984 <_dtoa_r+0x144>
 40238d8:	d9c02317 	ldw	r7,140(sp)
 40238dc:	00800044 	movi	r2,1
 40238e0:	38800015 	stw	r2,0(r7)
 40238e4:	d8802517 	ldw	r2,148(sp)
 40238e8:	10019e26 	beq	r2,zero,4023f64 <_dtoa_r+0x724>
 40238ec:	d8c02517 	ldw	r3,148(sp)
 40238f0:	00800034 	movhi	r2,0
 40238f4:	10806444 	addi	r2,r2,401
 40238f8:	18800015 	stw	r2,0(r3)
 40238fc:	10bfffc4 	addi	r2,r2,-1
 4023900:	dfc02117 	ldw	ra,132(sp)
 4023904:	df002017 	ldw	fp,128(sp)
 4023908:	ddc01f17 	ldw	r23,124(sp)
 402390c:	dd801e17 	ldw	r22,120(sp)
 4023910:	dd401d17 	ldw	r21,116(sp)
 4023914:	dd001c17 	ldw	r20,112(sp)
 4023918:	dcc01b17 	ldw	r19,108(sp)
 402391c:	dc801a17 	ldw	r18,104(sp)
 4023920:	dc401917 	ldw	r17,100(sp)
 4023924:	dc001817 	ldw	r16,96(sp)
 4023928:	dec02204 	addi	sp,sp,136
 402392c:	f800283a 	ret
 4023930:	d8c02317 	ldw	r3,140(sp)
 4023934:	0089c3c4 	movi	r2,9999
 4023938:	18800015 	stw	r2,0(r3)
 402393c:	90017726 	beq	r18,zero,4023f1c <_dtoa_r+0x6dc>
 4023940:	00800034 	movhi	r2,0
 4023944:	10807004 	addi	r2,r2,448
 4023948:	d9002517 	ldw	r4,148(sp)
 402394c:	203fec26 	beq	r4,zero,4023900 <__flash_rwdata_start+0xffff2dc8>
 4023950:	10c000c7 	ldb	r3,3(r2)
 4023954:	1801781e 	bne	r3,zero,4023f38 <_dtoa_r+0x6f8>
 4023958:	10c000c4 	addi	r3,r2,3
 402395c:	d9802517 	ldw	r6,148(sp)
 4023960:	30c00015 	stw	r3,0(r6)
 4023964:	003fe606 	br	4023900 <__flash_rwdata_start+0xffff2dc8>
 4023968:	04e00034 	movhi	r19,32768
 402396c:	9cffffc4 	addi	r19,r19,-1
 4023970:	00800044 	movi	r2,1
 4023974:	8ce6703a 	and	r19,r17,r19
 4023978:	80800015 	stw	r2,0(r16)
 402397c:	9823883a 	mov	r17,r19
 4023980:	003fcc06 	br	40238b4 <__flash_rwdata_start+0xffff2d7c>
 4023984:	d8800204 	addi	r2,sp,8
 4023988:	d8800015 	stw	r2,0(sp)
 402398c:	d9c00104 	addi	r7,sp,4
 4023990:	900b883a 	mov	r5,r18
 4023994:	980d883a 	mov	r6,r19
 4023998:	e009883a 	mov	r4,fp
 402399c:	8820d53a 	srli	r16,r17,20
 40239a0:	4027b000 	call	4027b00 <__d2b>
 40239a4:	d8800915 	stw	r2,36(sp)
 40239a8:	8001651e 	bne	r16,zero,4023f40 <_dtoa_r+0x700>
 40239ac:	dd800217 	ldw	r22,8(sp)
 40239b0:	dc000117 	ldw	r16,4(sp)
 40239b4:	00800804 	movi	r2,32
 40239b8:	b421883a 	add	r16,r22,r16
 40239bc:	80c10c84 	addi	r3,r16,1074
 40239c0:	10c2d10e 	bge	r2,r3,4024508 <_dtoa_r+0xcc8>
 40239c4:	00801004 	movi	r2,64
 40239c8:	81010484 	addi	r4,r16,1042
 40239cc:	10c7c83a 	sub	r3,r2,r3
 40239d0:	9108d83a 	srl	r4,r18,r4
 40239d4:	88e2983a 	sll	r17,r17,r3
 40239d8:	2448b03a 	or	r4,r4,r17
 40239dc:	402dcbc0 	call	402dcbc <__floatunsidf>
 40239e0:	017f8434 	movhi	r5,65040
 40239e4:	01800044 	movi	r6,1
 40239e8:	1009883a 	mov	r4,r2
 40239ec:	194b883a 	add	r5,r3,r5
 40239f0:	843fffc4 	addi	r16,r16,-1
 40239f4:	d9801115 	stw	r6,68(sp)
 40239f8:	000d883a 	mov	r6,zero
 40239fc:	01cffe34 	movhi	r7,16376
 4023a00:	402d2640 	call	402d264 <__subdf3>
 4023a04:	0198dbf4 	movhi	r6,25455
 4023a08:	01cff4f4 	movhi	r7,16339
 4023a0c:	3190d844 	addi	r6,r6,17249
 4023a10:	39e1e9c4 	addi	r7,r7,-30809
 4023a14:	1009883a 	mov	r4,r2
 4023a18:	180b883a 	mov	r5,r3
 4023a1c:	402c9f80 	call	402c9f8 <__muldf3>
 4023a20:	01a2d874 	movhi	r6,35681
 4023a24:	01cff1f4 	movhi	r7,16327
 4023a28:	31b22cc4 	addi	r6,r6,-14157
 4023a2c:	39e28a04 	addi	r7,r7,-30168
 4023a30:	180b883a 	mov	r5,r3
 4023a34:	1009883a 	mov	r4,r2
 4023a38:	402b5240 	call	402b524 <__adddf3>
 4023a3c:	8009883a 	mov	r4,r16
 4023a40:	1029883a 	mov	r20,r2
 4023a44:	1823883a 	mov	r17,r3
 4023a48:	402dbe00 	call	402dbe0 <__floatsidf>
 4023a4c:	019427f4 	movhi	r6,20639
 4023a50:	01cff4f4 	movhi	r7,16339
 4023a54:	319e7ec4 	addi	r6,r6,31227
 4023a58:	39d104c4 	addi	r7,r7,17427
 4023a5c:	1009883a 	mov	r4,r2
 4023a60:	180b883a 	mov	r5,r3
 4023a64:	402c9f80 	call	402c9f8 <__muldf3>
 4023a68:	100d883a 	mov	r6,r2
 4023a6c:	180f883a 	mov	r7,r3
 4023a70:	a009883a 	mov	r4,r20
 4023a74:	880b883a 	mov	r5,r17
 4023a78:	402b5240 	call	402b524 <__adddf3>
 4023a7c:	1009883a 	mov	r4,r2
 4023a80:	180b883a 	mov	r5,r3
 4023a84:	1029883a 	mov	r20,r2
 4023a88:	1823883a 	mov	r17,r3
 4023a8c:	402db600 	call	402db60 <__fixdfsi>
 4023a90:	000d883a 	mov	r6,zero
 4023a94:	000f883a 	mov	r7,zero
 4023a98:	a009883a 	mov	r4,r20
 4023a9c:	880b883a 	mov	r5,r17
 4023aa0:	d8800515 	stw	r2,20(sp)
 4023aa4:	402c9040 	call	402c904 <__ledf2>
 4023aa8:	10028716 	blt	r2,zero,40244c8 <_dtoa_r+0xc88>
 4023aac:	d8c00517 	ldw	r3,20(sp)
 4023ab0:	00800584 	movi	r2,22
 4023ab4:	10c27536 	bltu	r2,r3,402448c <_dtoa_r+0xc4c>
 4023ab8:	180490fa 	slli	r2,r3,3
 4023abc:	00c00034 	movhi	r3,0
 4023ac0:	18c08c04 	addi	r3,r3,560
 4023ac4:	1885883a 	add	r2,r3,r2
 4023ac8:	11000017 	ldw	r4,0(r2)
 4023acc:	11400117 	ldw	r5,4(r2)
 4023ad0:	900d883a 	mov	r6,r18
 4023ad4:	980f883a 	mov	r7,r19
 4023ad8:	402c8280 	call	402c828 <__gedf2>
 4023adc:	00828d0e 	bge	zero,r2,4024514 <_dtoa_r+0xcd4>
 4023ae0:	d9000517 	ldw	r4,20(sp)
 4023ae4:	d8000e15 	stw	zero,56(sp)
 4023ae8:	213fffc4 	addi	r4,r4,-1
 4023aec:	d9000515 	stw	r4,20(sp)
 4023af0:	b42dc83a 	sub	r22,r22,r16
 4023af4:	b5bfffc4 	addi	r22,r22,-1
 4023af8:	b0026f16 	blt	r22,zero,40244b8 <_dtoa_r+0xc78>
 4023afc:	d8000815 	stw	zero,32(sp)
 4023b00:	d9c00517 	ldw	r7,20(sp)
 4023b04:	38026416 	blt	r7,zero,4024498 <_dtoa_r+0xc58>
 4023b08:	b1ed883a 	add	r22,r22,r7
 4023b0c:	d9c00d15 	stw	r7,52(sp)
 4023b10:	d8000a15 	stw	zero,40(sp)
 4023b14:	d9800317 	ldw	r6,12(sp)
 4023b18:	00800244 	movi	r2,9
 4023b1c:	11811436 	bltu	r2,r6,4023f70 <_dtoa_r+0x730>
 4023b20:	00800144 	movi	r2,5
 4023b24:	1184e10e 	bge	r2,r6,4024eac <_dtoa_r+0x166c>
 4023b28:	31bfff04 	addi	r6,r6,-4
 4023b2c:	d9800315 	stw	r6,12(sp)
 4023b30:	0023883a 	mov	r17,zero
 4023b34:	d9800317 	ldw	r6,12(sp)
 4023b38:	008000c4 	movi	r2,3
 4023b3c:	30836726 	beq	r6,r2,40248dc <_dtoa_r+0x109c>
 4023b40:	1183410e 	bge	r2,r6,4024848 <_dtoa_r+0x1008>
 4023b44:	d9c00317 	ldw	r7,12(sp)
 4023b48:	00800104 	movi	r2,4
 4023b4c:	38827c26 	beq	r7,r2,4024540 <_dtoa_r+0xd00>
 4023b50:	00800144 	movi	r2,5
 4023b54:	3884c41e 	bne	r7,r2,4024e68 <_dtoa_r+0x1628>
 4023b58:	00800044 	movi	r2,1
 4023b5c:	d8800b15 	stw	r2,44(sp)
 4023b60:	d8c00517 	ldw	r3,20(sp)
 4023b64:	d9002217 	ldw	r4,136(sp)
 4023b68:	1907883a 	add	r3,r3,r4
 4023b6c:	19800044 	addi	r6,r3,1
 4023b70:	d8c00c15 	stw	r3,48(sp)
 4023b74:	d9800615 	stw	r6,24(sp)
 4023b78:	0183a40e 	bge	zero,r6,4024a0c <_dtoa_r+0x11cc>
 4023b7c:	d9800617 	ldw	r6,24(sp)
 4023b80:	3021883a 	mov	r16,r6
 4023b84:	e0001115 	stw	zero,68(fp)
 4023b88:	008005c4 	movi	r2,23
 4023b8c:	1184c92e 	bgeu	r2,r6,4024eb4 <_dtoa_r+0x1674>
 4023b90:	00c00044 	movi	r3,1
 4023b94:	00800104 	movi	r2,4
 4023b98:	1085883a 	add	r2,r2,r2
 4023b9c:	11000504 	addi	r4,r2,20
 4023ba0:	180b883a 	mov	r5,r3
 4023ba4:	18c00044 	addi	r3,r3,1
 4023ba8:	313ffb2e 	bgeu	r6,r4,4023b98 <__flash_rwdata_start+0xffff3060>
 4023bac:	e1401115 	stw	r5,68(fp)
 4023bb0:	e009883a 	mov	r4,fp
 4023bb4:	4026db00 	call	4026db0 <_Balloc>
 4023bb8:	d8800715 	stw	r2,28(sp)
 4023bbc:	e0801015 	stw	r2,64(fp)
 4023bc0:	00800384 	movi	r2,14
 4023bc4:	1400f736 	bltu	r2,r16,4023fa4 <_dtoa_r+0x764>
 4023bc8:	8800f626 	beq	r17,zero,4023fa4 <_dtoa_r+0x764>
 4023bcc:	d9c00517 	ldw	r7,20(sp)
 4023bd0:	01c39a0e 	bge	zero,r7,4024a3c <_dtoa_r+0x11fc>
 4023bd4:	388003cc 	andi	r2,r7,15
 4023bd8:	100490fa 	slli	r2,r2,3
 4023bdc:	382bd13a 	srai	r21,r7,4
 4023be0:	00c00034 	movhi	r3,0
 4023be4:	18c08c04 	addi	r3,r3,560
 4023be8:	1885883a 	add	r2,r3,r2
 4023bec:	a8c0040c 	andi	r3,r21,16
 4023bf0:	12400017 	ldw	r9,0(r2)
 4023bf4:	12000117 	ldw	r8,4(r2)
 4023bf8:	18037926 	beq	r3,zero,40249e0 <_dtoa_r+0x11a0>
 4023bfc:	00800034 	movhi	r2,0
 4023c00:	10808204 	addi	r2,r2,520
 4023c04:	11800817 	ldw	r6,32(r2)
 4023c08:	11c00917 	ldw	r7,36(r2)
 4023c0c:	9009883a 	mov	r4,r18
 4023c10:	980b883a 	mov	r5,r19
 4023c14:	da001715 	stw	r8,92(sp)
 4023c18:	da401615 	stw	r9,88(sp)
 4023c1c:	402bdd00 	call	402bdd0 <__divdf3>
 4023c20:	da001717 	ldw	r8,92(sp)
 4023c24:	da401617 	ldw	r9,88(sp)
 4023c28:	ad4003cc 	andi	r21,r21,15
 4023c2c:	040000c4 	movi	r16,3
 4023c30:	1023883a 	mov	r17,r2
 4023c34:	1829883a 	mov	r20,r3
 4023c38:	a8001126 	beq	r21,zero,4023c80 <_dtoa_r+0x440>
 4023c3c:	05c00034 	movhi	r23,0
 4023c40:	bdc08204 	addi	r23,r23,520
 4023c44:	4805883a 	mov	r2,r9
 4023c48:	4007883a 	mov	r3,r8
 4023c4c:	a980004c 	andi	r6,r21,1
 4023c50:	1009883a 	mov	r4,r2
 4023c54:	a82bd07a 	srai	r21,r21,1
 4023c58:	180b883a 	mov	r5,r3
 4023c5c:	30000426 	beq	r6,zero,4023c70 <_dtoa_r+0x430>
 4023c60:	b9800017 	ldw	r6,0(r23)
 4023c64:	b9c00117 	ldw	r7,4(r23)
 4023c68:	84000044 	addi	r16,r16,1
 4023c6c:	402c9f80 	call	402c9f8 <__muldf3>
 4023c70:	bdc00204 	addi	r23,r23,8
 4023c74:	a83ff51e 	bne	r21,zero,4023c4c <__flash_rwdata_start+0xffff3114>
 4023c78:	1013883a 	mov	r9,r2
 4023c7c:	1811883a 	mov	r8,r3
 4023c80:	480d883a 	mov	r6,r9
 4023c84:	400f883a 	mov	r7,r8
 4023c88:	8809883a 	mov	r4,r17
 4023c8c:	a00b883a 	mov	r5,r20
 4023c90:	402bdd00 	call	402bdd0 <__divdf3>
 4023c94:	d8800f15 	stw	r2,60(sp)
 4023c98:	d8c01015 	stw	r3,64(sp)
 4023c9c:	d8c00e17 	ldw	r3,56(sp)
 4023ca0:	18000626 	beq	r3,zero,4023cbc <_dtoa_r+0x47c>
 4023ca4:	d9000f17 	ldw	r4,60(sp)
 4023ca8:	d9401017 	ldw	r5,64(sp)
 4023cac:	000d883a 	mov	r6,zero
 4023cb0:	01cffc34 	movhi	r7,16368
 4023cb4:	402c9040 	call	402c904 <__ledf2>
 4023cb8:	10040b16 	blt	r2,zero,4024ce8 <_dtoa_r+0x14a8>
 4023cbc:	8009883a 	mov	r4,r16
 4023cc0:	402dbe00 	call	402dbe0 <__floatsidf>
 4023cc4:	d9800f17 	ldw	r6,60(sp)
 4023cc8:	d9c01017 	ldw	r7,64(sp)
 4023ccc:	1009883a 	mov	r4,r2
 4023cd0:	180b883a 	mov	r5,r3
 4023cd4:	402c9f80 	call	402c9f8 <__muldf3>
 4023cd8:	000d883a 	mov	r6,zero
 4023cdc:	01d00734 	movhi	r7,16412
 4023ce0:	1009883a 	mov	r4,r2
 4023ce4:	180b883a 	mov	r5,r3
 4023ce8:	402b5240 	call	402b524 <__adddf3>
 4023cec:	1021883a 	mov	r16,r2
 4023cf0:	d8800617 	ldw	r2,24(sp)
 4023cf4:	047f3034 	movhi	r17,64704
 4023cf8:	1c63883a 	add	r17,r3,r17
 4023cfc:	10031826 	beq	r2,zero,4024960 <_dtoa_r+0x1120>
 4023d00:	d8c00517 	ldw	r3,20(sp)
 4023d04:	db000617 	ldw	r12,24(sp)
 4023d08:	d8c01315 	stw	r3,76(sp)
 4023d0c:	d9000b17 	ldw	r4,44(sp)
 4023d10:	20038f26 	beq	r4,zero,4024b50 <_dtoa_r+0x1310>
 4023d14:	60bfffc4 	addi	r2,r12,-1
 4023d18:	100490fa 	slli	r2,r2,3
 4023d1c:	00c00034 	movhi	r3,0
 4023d20:	18c08c04 	addi	r3,r3,560
 4023d24:	1885883a 	add	r2,r3,r2
 4023d28:	11800017 	ldw	r6,0(r2)
 4023d2c:	11c00117 	ldw	r7,4(r2)
 4023d30:	d8800717 	ldw	r2,28(sp)
 4023d34:	0009883a 	mov	r4,zero
 4023d38:	014ff834 	movhi	r5,16352
 4023d3c:	db001615 	stw	r12,88(sp)
 4023d40:	15c00044 	addi	r23,r2,1
 4023d44:	402bdd00 	call	402bdd0 <__divdf3>
 4023d48:	800d883a 	mov	r6,r16
 4023d4c:	880f883a 	mov	r7,r17
 4023d50:	1009883a 	mov	r4,r2
 4023d54:	180b883a 	mov	r5,r3
 4023d58:	402d2640 	call	402d264 <__subdf3>
 4023d5c:	d9401017 	ldw	r5,64(sp)
 4023d60:	d9000f17 	ldw	r4,60(sp)
 4023d64:	102b883a 	mov	r21,r2
 4023d68:	d8c01215 	stw	r3,72(sp)
 4023d6c:	402db600 	call	402db60 <__fixdfsi>
 4023d70:	1009883a 	mov	r4,r2
 4023d74:	1029883a 	mov	r20,r2
 4023d78:	402dbe00 	call	402dbe0 <__floatsidf>
 4023d7c:	d9000f17 	ldw	r4,60(sp)
 4023d80:	d9401017 	ldw	r5,64(sp)
 4023d84:	100d883a 	mov	r6,r2
 4023d88:	180f883a 	mov	r7,r3
 4023d8c:	402d2640 	call	402d264 <__subdf3>
 4023d90:	1823883a 	mov	r17,r3
 4023d94:	d8c00717 	ldw	r3,28(sp)
 4023d98:	d9401217 	ldw	r5,72(sp)
 4023d9c:	a2000c04 	addi	r8,r20,48
 4023da0:	1021883a 	mov	r16,r2
 4023da4:	1a000005 	stb	r8,0(r3)
 4023da8:	800d883a 	mov	r6,r16
 4023dac:	880f883a 	mov	r7,r17
 4023db0:	a809883a 	mov	r4,r21
 4023db4:	4029883a 	mov	r20,r8
 4023db8:	402c8280 	call	402c828 <__gedf2>
 4023dbc:	00841d16 	blt	zero,r2,4024e34 <_dtoa_r+0x15f4>
 4023dc0:	800d883a 	mov	r6,r16
 4023dc4:	880f883a 	mov	r7,r17
 4023dc8:	0009883a 	mov	r4,zero
 4023dcc:	014ffc34 	movhi	r5,16368
 4023dd0:	402d2640 	call	402d264 <__subdf3>
 4023dd4:	d9401217 	ldw	r5,72(sp)
 4023dd8:	100d883a 	mov	r6,r2
 4023ddc:	180f883a 	mov	r7,r3
 4023de0:	a809883a 	mov	r4,r21
 4023de4:	402c8280 	call	402c828 <__gedf2>
 4023de8:	db001617 	ldw	r12,88(sp)
 4023dec:	00840e16 	blt	zero,r2,4024e28 <_dtoa_r+0x15e8>
 4023df0:	00800044 	movi	r2,1
 4023df4:	13006b0e 	bge	r2,r12,4023fa4 <_dtoa_r+0x764>
 4023df8:	d9000717 	ldw	r4,28(sp)
 4023dfc:	dd800f15 	stw	r22,60(sp)
 4023e00:	dcc01015 	stw	r19,64(sp)
 4023e04:	2319883a 	add	r12,r4,r12
 4023e08:	dcc01217 	ldw	r19,72(sp)
 4023e0c:	602d883a 	mov	r22,r12
 4023e10:	dc801215 	stw	r18,72(sp)
 4023e14:	b825883a 	mov	r18,r23
 4023e18:	00000906 	br	4023e40 <_dtoa_r+0x600>
 4023e1c:	402d2640 	call	402d264 <__subdf3>
 4023e20:	a80d883a 	mov	r6,r21
 4023e24:	980f883a 	mov	r7,r19
 4023e28:	1009883a 	mov	r4,r2
 4023e2c:	180b883a 	mov	r5,r3
 4023e30:	402c9040 	call	402c904 <__ledf2>
 4023e34:	1003e816 	blt	r2,zero,4024dd8 <_dtoa_r+0x1598>
 4023e38:	b825883a 	mov	r18,r23
 4023e3c:	bd83e926 	beq	r23,r22,4024de4 <_dtoa_r+0x15a4>
 4023e40:	a809883a 	mov	r4,r21
 4023e44:	980b883a 	mov	r5,r19
 4023e48:	000d883a 	mov	r6,zero
 4023e4c:	01d00934 	movhi	r7,16420
 4023e50:	402c9f80 	call	402c9f8 <__muldf3>
 4023e54:	000d883a 	mov	r6,zero
 4023e58:	01d00934 	movhi	r7,16420
 4023e5c:	8009883a 	mov	r4,r16
 4023e60:	880b883a 	mov	r5,r17
 4023e64:	102b883a 	mov	r21,r2
 4023e68:	1827883a 	mov	r19,r3
 4023e6c:	402c9f80 	call	402c9f8 <__muldf3>
 4023e70:	180b883a 	mov	r5,r3
 4023e74:	1009883a 	mov	r4,r2
 4023e78:	1821883a 	mov	r16,r3
 4023e7c:	1023883a 	mov	r17,r2
 4023e80:	402db600 	call	402db60 <__fixdfsi>
 4023e84:	1009883a 	mov	r4,r2
 4023e88:	1029883a 	mov	r20,r2
 4023e8c:	402dbe00 	call	402dbe0 <__floatsidf>
 4023e90:	8809883a 	mov	r4,r17
 4023e94:	800b883a 	mov	r5,r16
 4023e98:	100d883a 	mov	r6,r2
 4023e9c:	180f883a 	mov	r7,r3
 4023ea0:	402d2640 	call	402d264 <__subdf3>
 4023ea4:	a5000c04 	addi	r20,r20,48
 4023ea8:	a80d883a 	mov	r6,r21
 4023eac:	980f883a 	mov	r7,r19
 4023eb0:	1009883a 	mov	r4,r2
 4023eb4:	180b883a 	mov	r5,r3
 4023eb8:	95000005 	stb	r20,0(r18)
 4023ebc:	1021883a 	mov	r16,r2
 4023ec0:	1823883a 	mov	r17,r3
 4023ec4:	402c9040 	call	402c904 <__ledf2>
 4023ec8:	bdc00044 	addi	r23,r23,1
 4023ecc:	800d883a 	mov	r6,r16
 4023ed0:	880f883a 	mov	r7,r17
 4023ed4:	0009883a 	mov	r4,zero
 4023ed8:	014ffc34 	movhi	r5,16368
 4023edc:	103fcf0e 	bge	r2,zero,4023e1c <__flash_rwdata_start+0xffff32e4>
 4023ee0:	d8c01317 	ldw	r3,76(sp)
 4023ee4:	d8c00515 	stw	r3,20(sp)
 4023ee8:	d9400917 	ldw	r5,36(sp)
 4023eec:	e009883a 	mov	r4,fp
 4023ef0:	4026e580 	call	4026e58 <_Bfree>
 4023ef4:	d9000517 	ldw	r4,20(sp)
 4023ef8:	d9802317 	ldw	r6,140(sp)
 4023efc:	d9c02517 	ldw	r7,148(sp)
 4023f00:	b8000005 	stb	zero,0(r23)
 4023f04:	20800044 	addi	r2,r4,1
 4023f08:	30800015 	stw	r2,0(r6)
 4023f0c:	3802aa26 	beq	r7,zero,40249b8 <_dtoa_r+0x1178>
 4023f10:	3dc00015 	stw	r23,0(r7)
 4023f14:	d8800717 	ldw	r2,28(sp)
 4023f18:	003e7906 	br	4023900 <__flash_rwdata_start+0xffff2dc8>
 4023f1c:	00800434 	movhi	r2,16
 4023f20:	10bfffc4 	addi	r2,r2,-1
 4023f24:	88a2703a 	and	r17,r17,r2
 4023f28:	883e851e 	bne	r17,zero,4023940 <__flash_rwdata_start+0xffff2e08>
 4023f2c:	00800034 	movhi	r2,0
 4023f30:	10806d04 	addi	r2,r2,436
 4023f34:	003e8406 	br	4023948 <__flash_rwdata_start+0xffff2e10>
 4023f38:	10c00204 	addi	r3,r2,8
 4023f3c:	003e8706 	br	402395c <__flash_rwdata_start+0xffff2e24>
 4023f40:	01400434 	movhi	r5,16
 4023f44:	297fffc4 	addi	r5,r5,-1
 4023f48:	994a703a 	and	r5,r19,r5
 4023f4c:	9009883a 	mov	r4,r18
 4023f50:	843f0044 	addi	r16,r16,-1023
 4023f54:	294ffc34 	orhi	r5,r5,16368
 4023f58:	dd800217 	ldw	r22,8(sp)
 4023f5c:	d8001115 	stw	zero,68(sp)
 4023f60:	003ea506 	br	40239f8 <__flash_rwdata_start+0xffff2ec0>
 4023f64:	00800034 	movhi	r2,0
 4023f68:	10806404 	addi	r2,r2,400
 4023f6c:	003e6406 	br	4023900 <__flash_rwdata_start+0xffff2dc8>
 4023f70:	e0001115 	stw	zero,68(fp)
 4023f74:	000b883a 	mov	r5,zero
 4023f78:	e009883a 	mov	r4,fp
 4023f7c:	4026db00 	call	4026db0 <_Balloc>
 4023f80:	01bfffc4 	movi	r6,-1
 4023f84:	01c00044 	movi	r7,1
 4023f88:	d8800715 	stw	r2,28(sp)
 4023f8c:	d9800c15 	stw	r6,48(sp)
 4023f90:	e0801015 	stw	r2,64(fp)
 4023f94:	d8000315 	stw	zero,12(sp)
 4023f98:	d9c00b15 	stw	r7,44(sp)
 4023f9c:	d9800615 	stw	r6,24(sp)
 4023fa0:	d8002215 	stw	zero,136(sp)
 4023fa4:	d8800117 	ldw	r2,4(sp)
 4023fa8:	10008916 	blt	r2,zero,40241d0 <_dtoa_r+0x990>
 4023fac:	d9000517 	ldw	r4,20(sp)
 4023fb0:	00c00384 	movi	r3,14
 4023fb4:	19008616 	blt	r3,r4,40241d0 <_dtoa_r+0x990>
 4023fb8:	200490fa 	slli	r2,r4,3
 4023fbc:	00c00034 	movhi	r3,0
 4023fc0:	d9802217 	ldw	r6,136(sp)
 4023fc4:	18c08c04 	addi	r3,r3,560
 4023fc8:	1885883a 	add	r2,r3,r2
 4023fcc:	14000017 	ldw	r16,0(r2)
 4023fd0:	14400117 	ldw	r17,4(r2)
 4023fd4:	30016316 	blt	r6,zero,4024564 <_dtoa_r+0xd24>
 4023fd8:	800d883a 	mov	r6,r16
 4023fdc:	880f883a 	mov	r7,r17
 4023fe0:	9009883a 	mov	r4,r18
 4023fe4:	980b883a 	mov	r5,r19
 4023fe8:	402bdd00 	call	402bdd0 <__divdf3>
 4023fec:	180b883a 	mov	r5,r3
 4023ff0:	1009883a 	mov	r4,r2
 4023ff4:	402db600 	call	402db60 <__fixdfsi>
 4023ff8:	1009883a 	mov	r4,r2
 4023ffc:	102b883a 	mov	r21,r2
 4024000:	402dbe00 	call	402dbe0 <__floatsidf>
 4024004:	800d883a 	mov	r6,r16
 4024008:	880f883a 	mov	r7,r17
 402400c:	1009883a 	mov	r4,r2
 4024010:	180b883a 	mov	r5,r3
 4024014:	402c9f80 	call	402c9f8 <__muldf3>
 4024018:	100d883a 	mov	r6,r2
 402401c:	180f883a 	mov	r7,r3
 4024020:	9009883a 	mov	r4,r18
 4024024:	980b883a 	mov	r5,r19
 4024028:	402d2640 	call	402d264 <__subdf3>
 402402c:	d9c00717 	ldw	r7,28(sp)
 4024030:	1009883a 	mov	r4,r2
 4024034:	a8800c04 	addi	r2,r21,48
 4024038:	38800005 	stb	r2,0(r7)
 402403c:	3dc00044 	addi	r23,r7,1
 4024040:	d9c00617 	ldw	r7,24(sp)
 4024044:	01800044 	movi	r6,1
 4024048:	180b883a 	mov	r5,r3
 402404c:	2005883a 	mov	r2,r4
 4024050:	39803826 	beq	r7,r6,4024134 <_dtoa_r+0x8f4>
 4024054:	000d883a 	mov	r6,zero
 4024058:	01d00934 	movhi	r7,16420
 402405c:	402c9f80 	call	402c9f8 <__muldf3>
 4024060:	000d883a 	mov	r6,zero
 4024064:	000f883a 	mov	r7,zero
 4024068:	1009883a 	mov	r4,r2
 402406c:	180b883a 	mov	r5,r3
 4024070:	1025883a 	mov	r18,r2
 4024074:	1827883a 	mov	r19,r3
 4024078:	402c7a00 	call	402c7a0 <__eqdf2>
 402407c:	103f9a26 	beq	r2,zero,4023ee8 <__flash_rwdata_start+0xffff33b0>
 4024080:	d9c00617 	ldw	r7,24(sp)
 4024084:	d8c00717 	ldw	r3,28(sp)
 4024088:	b829883a 	mov	r20,r23
 402408c:	38bfffc4 	addi	r2,r7,-1
 4024090:	18ad883a 	add	r22,r3,r2
 4024094:	00000a06 	br	40240c0 <_dtoa_r+0x880>
 4024098:	402c9f80 	call	402c9f8 <__muldf3>
 402409c:	000d883a 	mov	r6,zero
 40240a0:	000f883a 	mov	r7,zero
 40240a4:	1009883a 	mov	r4,r2
 40240a8:	180b883a 	mov	r5,r3
 40240ac:	1025883a 	mov	r18,r2
 40240b0:	1827883a 	mov	r19,r3
 40240b4:	b829883a 	mov	r20,r23
 40240b8:	402c7a00 	call	402c7a0 <__eqdf2>
 40240bc:	103f8a26 	beq	r2,zero,4023ee8 <__flash_rwdata_start+0xffff33b0>
 40240c0:	800d883a 	mov	r6,r16
 40240c4:	880f883a 	mov	r7,r17
 40240c8:	9009883a 	mov	r4,r18
 40240cc:	980b883a 	mov	r5,r19
 40240d0:	402bdd00 	call	402bdd0 <__divdf3>
 40240d4:	180b883a 	mov	r5,r3
 40240d8:	1009883a 	mov	r4,r2
 40240dc:	402db600 	call	402db60 <__fixdfsi>
 40240e0:	1009883a 	mov	r4,r2
 40240e4:	102b883a 	mov	r21,r2
 40240e8:	402dbe00 	call	402dbe0 <__floatsidf>
 40240ec:	800d883a 	mov	r6,r16
 40240f0:	880f883a 	mov	r7,r17
 40240f4:	1009883a 	mov	r4,r2
 40240f8:	180b883a 	mov	r5,r3
 40240fc:	402c9f80 	call	402c9f8 <__muldf3>
 4024100:	100d883a 	mov	r6,r2
 4024104:	180f883a 	mov	r7,r3
 4024108:	9009883a 	mov	r4,r18
 402410c:	980b883a 	mov	r5,r19
 4024110:	402d2640 	call	402d264 <__subdf3>
 4024114:	aa000c04 	addi	r8,r21,48
 4024118:	a2000005 	stb	r8,0(r20)
 402411c:	000d883a 	mov	r6,zero
 4024120:	01d00934 	movhi	r7,16420
 4024124:	1009883a 	mov	r4,r2
 4024128:	180b883a 	mov	r5,r3
 402412c:	a5c00044 	addi	r23,r20,1
 4024130:	b53fd91e 	bne	r22,r20,4024098 <__flash_rwdata_start+0xffff3560>
 4024134:	100d883a 	mov	r6,r2
 4024138:	180f883a 	mov	r7,r3
 402413c:	1009883a 	mov	r4,r2
 4024140:	180b883a 	mov	r5,r3
 4024144:	402b5240 	call	402b524 <__adddf3>
 4024148:	100d883a 	mov	r6,r2
 402414c:	180f883a 	mov	r7,r3
 4024150:	8009883a 	mov	r4,r16
 4024154:	880b883a 	mov	r5,r17
 4024158:	1027883a 	mov	r19,r2
 402415c:	1825883a 	mov	r18,r3
 4024160:	402c9040 	call	402c904 <__ledf2>
 4024164:	10000816 	blt	r2,zero,4024188 <_dtoa_r+0x948>
 4024168:	980d883a 	mov	r6,r19
 402416c:	900f883a 	mov	r7,r18
 4024170:	8009883a 	mov	r4,r16
 4024174:	880b883a 	mov	r5,r17
 4024178:	402c7a00 	call	402c7a0 <__eqdf2>
 402417c:	103f5a1e 	bne	r2,zero,4023ee8 <__flash_rwdata_start+0xffff33b0>
 4024180:	ad40004c 	andi	r21,r21,1
 4024184:	a83f5826 	beq	r21,zero,4023ee8 <__flash_rwdata_start+0xffff33b0>
 4024188:	bd3fffc3 	ldbu	r20,-1(r23)
 402418c:	b8bfffc4 	addi	r2,r23,-1
 4024190:	1007883a 	mov	r3,r2
 4024194:	01400e44 	movi	r5,57
 4024198:	d9800717 	ldw	r6,28(sp)
 402419c:	00000506 	br	40241b4 <_dtoa_r+0x974>
 40241a0:	18ffffc4 	addi	r3,r3,-1
 40241a4:	11824726 	beq	r2,r6,4024ac4 <_dtoa_r+0x1284>
 40241a8:	1d000003 	ldbu	r20,0(r3)
 40241ac:	102f883a 	mov	r23,r2
 40241b0:	10bfffc4 	addi	r2,r2,-1
 40241b4:	a1003fcc 	andi	r4,r20,255
 40241b8:	2100201c 	xori	r4,r4,128
 40241bc:	213fe004 	addi	r4,r4,-128
 40241c0:	217ff726 	beq	r4,r5,40241a0 <__flash_rwdata_start+0xffff3668>
 40241c4:	a2000044 	addi	r8,r20,1
 40241c8:	12000005 	stb	r8,0(r2)
 40241cc:	003f4606 	br	4023ee8 <__flash_rwdata_start+0xffff33b0>
 40241d0:	d9000b17 	ldw	r4,44(sp)
 40241d4:	2000c826 	beq	r4,zero,40244f8 <_dtoa_r+0xcb8>
 40241d8:	d9800317 	ldw	r6,12(sp)
 40241dc:	00c00044 	movi	r3,1
 40241e0:	1980f90e 	bge	r3,r6,40245c8 <_dtoa_r+0xd88>
 40241e4:	d8800617 	ldw	r2,24(sp)
 40241e8:	d8c00a17 	ldw	r3,40(sp)
 40241ec:	157fffc4 	addi	r21,r2,-1
 40241f0:	1d41f316 	blt	r3,r21,40249c0 <_dtoa_r+0x1180>
 40241f4:	1d6bc83a 	sub	r21,r3,r21
 40241f8:	d9c00617 	ldw	r7,24(sp)
 40241fc:	3802aa16 	blt	r7,zero,4024ca8 <_dtoa_r+0x1468>
 4024200:	dd000817 	ldw	r20,32(sp)
 4024204:	d8800617 	ldw	r2,24(sp)
 4024208:	d8c00817 	ldw	r3,32(sp)
 402420c:	01400044 	movi	r5,1
 4024210:	e009883a 	mov	r4,fp
 4024214:	1887883a 	add	r3,r3,r2
 4024218:	d8c00815 	stw	r3,32(sp)
 402421c:	b0ad883a 	add	r22,r22,r2
 4024220:	40271e40 	call	40271e4 <__i2b>
 4024224:	1023883a 	mov	r17,r2
 4024228:	a0000826 	beq	r20,zero,402424c <_dtoa_r+0xa0c>
 402422c:	0580070e 	bge	zero,r22,402424c <_dtoa_r+0xa0c>
 4024230:	a005883a 	mov	r2,r20
 4024234:	b500b916 	blt	r22,r20,402451c <_dtoa_r+0xcdc>
 4024238:	d9000817 	ldw	r4,32(sp)
 402423c:	a0a9c83a 	sub	r20,r20,r2
 4024240:	b0adc83a 	sub	r22,r22,r2
 4024244:	2089c83a 	sub	r4,r4,r2
 4024248:	d9000815 	stw	r4,32(sp)
 402424c:	d9800a17 	ldw	r6,40(sp)
 4024250:	0181810e 	bge	zero,r6,4024858 <_dtoa_r+0x1018>
 4024254:	d9c00b17 	ldw	r7,44(sp)
 4024258:	3800b326 	beq	r7,zero,4024528 <_dtoa_r+0xce8>
 402425c:	a800b226 	beq	r21,zero,4024528 <_dtoa_r+0xce8>
 4024260:	880b883a 	mov	r5,r17
 4024264:	a80d883a 	mov	r6,r21
 4024268:	e009883a 	mov	r4,fp
 402426c:	40274ac0 	call	40274ac <__pow5mult>
 4024270:	d9800917 	ldw	r6,36(sp)
 4024274:	100b883a 	mov	r5,r2
 4024278:	e009883a 	mov	r4,fp
 402427c:	1023883a 	mov	r17,r2
 4024280:	40272200 	call	4027220 <__multiply>
 4024284:	1021883a 	mov	r16,r2
 4024288:	d8800a17 	ldw	r2,40(sp)
 402428c:	d9400917 	ldw	r5,36(sp)
 4024290:	e009883a 	mov	r4,fp
 4024294:	1545c83a 	sub	r2,r2,r21
 4024298:	d8800a15 	stw	r2,40(sp)
 402429c:	4026e580 	call	4026e58 <_Bfree>
 40242a0:	d8c00a17 	ldw	r3,40(sp)
 40242a4:	18009f1e 	bne	r3,zero,4024524 <_dtoa_r+0xce4>
 40242a8:	05c00044 	movi	r23,1
 40242ac:	e009883a 	mov	r4,fp
 40242b0:	b80b883a 	mov	r5,r23
 40242b4:	40271e40 	call	40271e4 <__i2b>
 40242b8:	d9000d17 	ldw	r4,52(sp)
 40242bc:	102b883a 	mov	r21,r2
 40242c0:	2000ce26 	beq	r4,zero,40245fc <_dtoa_r+0xdbc>
 40242c4:	200d883a 	mov	r6,r4
 40242c8:	100b883a 	mov	r5,r2
 40242cc:	e009883a 	mov	r4,fp
 40242d0:	40274ac0 	call	40274ac <__pow5mult>
 40242d4:	d9800317 	ldw	r6,12(sp)
 40242d8:	102b883a 	mov	r21,r2
 40242dc:	b981810e 	bge	r23,r6,40248e4 <_dtoa_r+0x10a4>
 40242e0:	0027883a 	mov	r19,zero
 40242e4:	a8800417 	ldw	r2,16(r21)
 40242e8:	05c00804 	movi	r23,32
 40242ec:	10800104 	addi	r2,r2,4
 40242f0:	1085883a 	add	r2,r2,r2
 40242f4:	1085883a 	add	r2,r2,r2
 40242f8:	a885883a 	add	r2,r21,r2
 40242fc:	11000017 	ldw	r4,0(r2)
 4024300:	40270cc0 	call	40270cc <__hi0bits>
 4024304:	b885c83a 	sub	r2,r23,r2
 4024308:	1585883a 	add	r2,r2,r22
 402430c:	108007cc 	andi	r2,r2,31
 4024310:	1000b326 	beq	r2,zero,40245e0 <_dtoa_r+0xda0>
 4024314:	00c00804 	movi	r3,32
 4024318:	1887c83a 	sub	r3,r3,r2
 402431c:	01000104 	movi	r4,4
 4024320:	20c2cd0e 	bge	r4,r3,4024e58 <_dtoa_r+0x1618>
 4024324:	00c00704 	movi	r3,28
 4024328:	1885c83a 	sub	r2,r3,r2
 402432c:	d8c00817 	ldw	r3,32(sp)
 4024330:	a0a9883a 	add	r20,r20,r2
 4024334:	b0ad883a 	add	r22,r22,r2
 4024338:	1887883a 	add	r3,r3,r2
 402433c:	d8c00815 	stw	r3,32(sp)
 4024340:	d9800817 	ldw	r6,32(sp)
 4024344:	0180040e 	bge	zero,r6,4024358 <_dtoa_r+0xb18>
 4024348:	800b883a 	mov	r5,r16
 402434c:	e009883a 	mov	r4,fp
 4024350:	40275ec0 	call	40275ec <__lshift>
 4024354:	1021883a 	mov	r16,r2
 4024358:	0580050e 	bge	zero,r22,4024370 <_dtoa_r+0xb30>
 402435c:	a80b883a 	mov	r5,r21
 4024360:	b00d883a 	mov	r6,r22
 4024364:	e009883a 	mov	r4,fp
 4024368:	40275ec0 	call	40275ec <__lshift>
 402436c:	102b883a 	mov	r21,r2
 4024370:	d9c00e17 	ldw	r7,56(sp)
 4024374:	3801211e 	bne	r7,zero,40247fc <_dtoa_r+0xfbc>
 4024378:	d9800617 	ldw	r6,24(sp)
 402437c:	0181380e 	bge	zero,r6,4024860 <_dtoa_r+0x1020>
 4024380:	d8c00b17 	ldw	r3,44(sp)
 4024384:	1800ab1e 	bne	r3,zero,4024634 <_dtoa_r+0xdf4>
 4024388:	dc800717 	ldw	r18,28(sp)
 402438c:	dcc00617 	ldw	r19,24(sp)
 4024390:	9029883a 	mov	r20,r18
 4024394:	00000206 	br	40243a0 <_dtoa_r+0xb60>
 4024398:	4026e800 	call	4026e80 <__multadd>
 402439c:	1021883a 	mov	r16,r2
 40243a0:	a80b883a 	mov	r5,r21
 40243a4:	8009883a 	mov	r4,r16
 40243a8:	40236180 	call	4023618 <quorem>
 40243ac:	10800c04 	addi	r2,r2,48
 40243b0:	90800005 	stb	r2,0(r18)
 40243b4:	94800044 	addi	r18,r18,1
 40243b8:	9507c83a 	sub	r3,r18,r20
 40243bc:	000f883a 	mov	r7,zero
 40243c0:	01800284 	movi	r6,10
 40243c4:	800b883a 	mov	r5,r16
 40243c8:	e009883a 	mov	r4,fp
 40243cc:	1cfff216 	blt	r3,r19,4024398 <__flash_rwdata_start+0xffff3860>
 40243d0:	1011883a 	mov	r8,r2
 40243d4:	d8800617 	ldw	r2,24(sp)
 40243d8:	0082370e 	bge	zero,r2,4024cb8 <_dtoa_r+0x1478>
 40243dc:	d9000717 	ldw	r4,28(sp)
 40243e0:	0025883a 	mov	r18,zero
 40243e4:	20af883a 	add	r23,r4,r2
 40243e8:	01800044 	movi	r6,1
 40243ec:	800b883a 	mov	r5,r16
 40243f0:	e009883a 	mov	r4,fp
 40243f4:	da001715 	stw	r8,92(sp)
 40243f8:	40275ec0 	call	40275ec <__lshift>
 40243fc:	a80b883a 	mov	r5,r21
 4024400:	1009883a 	mov	r4,r2
 4024404:	d8800915 	stw	r2,36(sp)
 4024408:	40277340 	call	4027734 <__mcmp>
 402440c:	da001717 	ldw	r8,92(sp)
 4024410:	0081800e 	bge	zero,r2,4024a14 <_dtoa_r+0x11d4>
 4024414:	b93fffc3 	ldbu	r4,-1(r23)
 4024418:	b8bfffc4 	addi	r2,r23,-1
 402441c:	1007883a 	mov	r3,r2
 4024420:	01800e44 	movi	r6,57
 4024424:	d9c00717 	ldw	r7,28(sp)
 4024428:	00000506 	br	4024440 <_dtoa_r+0xc00>
 402442c:	18ffffc4 	addi	r3,r3,-1
 4024430:	11c12326 	beq	r2,r7,40248c0 <_dtoa_r+0x1080>
 4024434:	19000003 	ldbu	r4,0(r3)
 4024438:	102f883a 	mov	r23,r2
 402443c:	10bfffc4 	addi	r2,r2,-1
 4024440:	21403fcc 	andi	r5,r4,255
 4024444:	2940201c 	xori	r5,r5,128
 4024448:	297fe004 	addi	r5,r5,-128
 402444c:	29bff726 	beq	r5,r6,402442c <__flash_rwdata_start+0xffff38f4>
 4024450:	21000044 	addi	r4,r4,1
 4024454:	11000005 	stb	r4,0(r2)
 4024458:	a80b883a 	mov	r5,r21
 402445c:	e009883a 	mov	r4,fp
 4024460:	4026e580 	call	4026e58 <_Bfree>
 4024464:	883ea026 	beq	r17,zero,4023ee8 <__flash_rwdata_start+0xffff33b0>
 4024468:	90000426 	beq	r18,zero,402447c <_dtoa_r+0xc3c>
 402446c:	94400326 	beq	r18,r17,402447c <_dtoa_r+0xc3c>
 4024470:	900b883a 	mov	r5,r18
 4024474:	e009883a 	mov	r4,fp
 4024478:	4026e580 	call	4026e58 <_Bfree>
 402447c:	880b883a 	mov	r5,r17
 4024480:	e009883a 	mov	r4,fp
 4024484:	4026e580 	call	4026e58 <_Bfree>
 4024488:	003e9706 	br	4023ee8 <__flash_rwdata_start+0xffff33b0>
 402448c:	01800044 	movi	r6,1
 4024490:	d9800e15 	stw	r6,56(sp)
 4024494:	003d9606 	br	4023af0 <__flash_rwdata_start+0xffff2fb8>
 4024498:	d8800817 	ldw	r2,32(sp)
 402449c:	d8c00517 	ldw	r3,20(sp)
 40244a0:	d8000d15 	stw	zero,52(sp)
 40244a4:	10c5c83a 	sub	r2,r2,r3
 40244a8:	00c9c83a 	sub	r4,zero,r3
 40244ac:	d8800815 	stw	r2,32(sp)
 40244b0:	d9000a15 	stw	r4,40(sp)
 40244b4:	003d9706 	br	4023b14 <__flash_rwdata_start+0xffff2fdc>
 40244b8:	05adc83a 	sub	r22,zero,r22
 40244bc:	dd800815 	stw	r22,32(sp)
 40244c0:	002d883a 	mov	r22,zero
 40244c4:	003d8e06 	br	4023b00 <__flash_rwdata_start+0xffff2fc8>
 40244c8:	d9000517 	ldw	r4,20(sp)
 40244cc:	402dbe00 	call	402dbe0 <__floatsidf>
 40244d0:	100d883a 	mov	r6,r2
 40244d4:	180f883a 	mov	r7,r3
 40244d8:	a009883a 	mov	r4,r20
 40244dc:	880b883a 	mov	r5,r17
 40244e0:	402c7a00 	call	402c7a0 <__eqdf2>
 40244e4:	103d7126 	beq	r2,zero,4023aac <__flash_rwdata_start+0xffff2f74>
 40244e8:	d9c00517 	ldw	r7,20(sp)
 40244ec:	39ffffc4 	addi	r7,r7,-1
 40244f0:	d9c00515 	stw	r7,20(sp)
 40244f4:	003d6d06 	br	4023aac <__flash_rwdata_start+0xffff2f74>
 40244f8:	dd400a17 	ldw	r21,40(sp)
 40244fc:	dd000817 	ldw	r20,32(sp)
 4024500:	0023883a 	mov	r17,zero
 4024504:	003f4806 	br	4024228 <__flash_rwdata_start+0xffff36f0>
 4024508:	10e3c83a 	sub	r17,r2,r3
 402450c:	9448983a 	sll	r4,r18,r17
 4024510:	003d3206 	br	40239dc <__flash_rwdata_start+0xffff2ea4>
 4024514:	d8000e15 	stw	zero,56(sp)
 4024518:	003d7506 	br	4023af0 <__flash_rwdata_start+0xffff2fb8>
 402451c:	b005883a 	mov	r2,r22
 4024520:	003f4506 	br	4024238 <__flash_rwdata_start+0xffff3700>
 4024524:	dc000915 	stw	r16,36(sp)
 4024528:	d9800a17 	ldw	r6,40(sp)
 402452c:	d9400917 	ldw	r5,36(sp)
 4024530:	e009883a 	mov	r4,fp
 4024534:	40274ac0 	call	40274ac <__pow5mult>
 4024538:	1021883a 	mov	r16,r2
 402453c:	003f5a06 	br	40242a8 <__flash_rwdata_start+0xffff3770>
 4024540:	01c00044 	movi	r7,1
 4024544:	d9c00b15 	stw	r7,44(sp)
 4024548:	d8802217 	ldw	r2,136(sp)
 402454c:	0081280e 	bge	zero,r2,40249f0 <_dtoa_r+0x11b0>
 4024550:	100d883a 	mov	r6,r2
 4024554:	1021883a 	mov	r16,r2
 4024558:	d8800c15 	stw	r2,48(sp)
 402455c:	d8800615 	stw	r2,24(sp)
 4024560:	003d8806 	br	4023b84 <__flash_rwdata_start+0xffff304c>
 4024564:	d8800617 	ldw	r2,24(sp)
 4024568:	00be9b16 	blt	zero,r2,4023fd8 <__flash_rwdata_start+0xffff34a0>
 402456c:	10010f1e 	bne	r2,zero,40249ac <_dtoa_r+0x116c>
 4024570:	880b883a 	mov	r5,r17
 4024574:	000d883a 	mov	r6,zero
 4024578:	01d00534 	movhi	r7,16404
 402457c:	8009883a 	mov	r4,r16
 4024580:	402c9f80 	call	402c9f8 <__muldf3>
 4024584:	900d883a 	mov	r6,r18
 4024588:	980f883a 	mov	r7,r19
 402458c:	1009883a 	mov	r4,r2
 4024590:	180b883a 	mov	r5,r3
 4024594:	402c8280 	call	402c828 <__gedf2>
 4024598:	002b883a 	mov	r21,zero
 402459c:	0023883a 	mov	r17,zero
 40245a0:	1000bf16 	blt	r2,zero,40248a0 <_dtoa_r+0x1060>
 40245a4:	d9802217 	ldw	r6,136(sp)
 40245a8:	ddc00717 	ldw	r23,28(sp)
 40245ac:	018c303a 	nor	r6,zero,r6
 40245b0:	d9800515 	stw	r6,20(sp)
 40245b4:	a80b883a 	mov	r5,r21
 40245b8:	e009883a 	mov	r4,fp
 40245bc:	4026e580 	call	4026e58 <_Bfree>
 40245c0:	883e4926 	beq	r17,zero,4023ee8 <__flash_rwdata_start+0xffff33b0>
 40245c4:	003fad06 	br	402447c <__flash_rwdata_start+0xffff3944>
 40245c8:	d9c01117 	ldw	r7,68(sp)
 40245cc:	3801bc26 	beq	r7,zero,4024cc0 <_dtoa_r+0x1480>
 40245d0:	10810cc4 	addi	r2,r2,1075
 40245d4:	dd400a17 	ldw	r21,40(sp)
 40245d8:	dd000817 	ldw	r20,32(sp)
 40245dc:	003f0a06 	br	4024208 <__flash_rwdata_start+0xffff36d0>
 40245e0:	00800704 	movi	r2,28
 40245e4:	d9000817 	ldw	r4,32(sp)
 40245e8:	a0a9883a 	add	r20,r20,r2
 40245ec:	b0ad883a 	add	r22,r22,r2
 40245f0:	2089883a 	add	r4,r4,r2
 40245f4:	d9000815 	stw	r4,32(sp)
 40245f8:	003f5106 	br	4024340 <__flash_rwdata_start+0xffff3808>
 40245fc:	d8c00317 	ldw	r3,12(sp)
 4024600:	b8c1fc0e 	bge	r23,r3,4024df4 <_dtoa_r+0x15b4>
 4024604:	0027883a 	mov	r19,zero
 4024608:	b805883a 	mov	r2,r23
 402460c:	003f3e06 	br	4024308 <__flash_rwdata_start+0xffff37d0>
 4024610:	880b883a 	mov	r5,r17
 4024614:	e009883a 	mov	r4,fp
 4024618:	000f883a 	mov	r7,zero
 402461c:	01800284 	movi	r6,10
 4024620:	4026e800 	call	4026e80 <__multadd>
 4024624:	d9000c17 	ldw	r4,48(sp)
 4024628:	1023883a 	mov	r17,r2
 402462c:	0102040e 	bge	zero,r4,4024e40 <_dtoa_r+0x1600>
 4024630:	d9000615 	stw	r4,24(sp)
 4024634:	0500050e 	bge	zero,r20,402464c <_dtoa_r+0xe0c>
 4024638:	880b883a 	mov	r5,r17
 402463c:	a00d883a 	mov	r6,r20
 4024640:	e009883a 	mov	r4,fp
 4024644:	40275ec0 	call	40275ec <__lshift>
 4024648:	1023883a 	mov	r17,r2
 402464c:	9801241e 	bne	r19,zero,4024ae0 <_dtoa_r+0x12a0>
 4024650:	8829883a 	mov	r20,r17
 4024654:	d9000617 	ldw	r4,24(sp)
 4024658:	dcc00717 	ldw	r19,28(sp)
 402465c:	9480004c 	andi	r18,r18,1
 4024660:	20bfffc4 	addi	r2,r4,-1
 4024664:	9885883a 	add	r2,r19,r2
 4024668:	d8800415 	stw	r2,16(sp)
 402466c:	dc800615 	stw	r18,24(sp)
 4024670:	a80b883a 	mov	r5,r21
 4024674:	8009883a 	mov	r4,r16
 4024678:	40236180 	call	4023618 <quorem>
 402467c:	880b883a 	mov	r5,r17
 4024680:	8009883a 	mov	r4,r16
 4024684:	102f883a 	mov	r23,r2
 4024688:	40277340 	call	4027734 <__mcmp>
 402468c:	a80b883a 	mov	r5,r21
 4024690:	a00d883a 	mov	r6,r20
 4024694:	e009883a 	mov	r4,fp
 4024698:	102d883a 	mov	r22,r2
 402469c:	40277940 	call	4027794 <__mdiff>
 40246a0:	1007883a 	mov	r3,r2
 40246a4:	10800317 	ldw	r2,12(r2)
 40246a8:	bc800c04 	addi	r18,r23,48
 40246ac:	180b883a 	mov	r5,r3
 40246b0:	10004e1e 	bne	r2,zero,40247ec <_dtoa_r+0xfac>
 40246b4:	8009883a 	mov	r4,r16
 40246b8:	d8c01615 	stw	r3,88(sp)
 40246bc:	40277340 	call	4027734 <__mcmp>
 40246c0:	d8c01617 	ldw	r3,88(sp)
 40246c4:	e009883a 	mov	r4,fp
 40246c8:	d8801615 	stw	r2,88(sp)
 40246cc:	180b883a 	mov	r5,r3
 40246d0:	4026e580 	call	4026e58 <_Bfree>
 40246d4:	d8801617 	ldw	r2,88(sp)
 40246d8:	1000041e 	bne	r2,zero,40246ec <_dtoa_r+0xeac>
 40246dc:	d9800317 	ldw	r6,12(sp)
 40246e0:	3000021e 	bne	r6,zero,40246ec <_dtoa_r+0xeac>
 40246e4:	d8c00617 	ldw	r3,24(sp)
 40246e8:	18003726 	beq	r3,zero,40247c8 <_dtoa_r+0xf88>
 40246ec:	b0002016 	blt	r22,zero,4024770 <_dtoa_r+0xf30>
 40246f0:	b000041e 	bne	r22,zero,4024704 <_dtoa_r+0xec4>
 40246f4:	d9000317 	ldw	r4,12(sp)
 40246f8:	2000021e 	bne	r4,zero,4024704 <_dtoa_r+0xec4>
 40246fc:	d8c00617 	ldw	r3,24(sp)
 4024700:	18001b26 	beq	r3,zero,4024770 <_dtoa_r+0xf30>
 4024704:	00810716 	blt	zero,r2,4024b24 <_dtoa_r+0x12e4>
 4024708:	d8c00417 	ldw	r3,16(sp)
 402470c:	9d800044 	addi	r22,r19,1
 4024710:	9c800005 	stb	r18,0(r19)
 4024714:	b02f883a 	mov	r23,r22
 4024718:	98c10626 	beq	r19,r3,4024b34 <_dtoa_r+0x12f4>
 402471c:	800b883a 	mov	r5,r16
 4024720:	000f883a 	mov	r7,zero
 4024724:	01800284 	movi	r6,10
 4024728:	e009883a 	mov	r4,fp
 402472c:	4026e800 	call	4026e80 <__multadd>
 4024730:	1021883a 	mov	r16,r2
 4024734:	000f883a 	mov	r7,zero
 4024738:	01800284 	movi	r6,10
 402473c:	880b883a 	mov	r5,r17
 4024740:	e009883a 	mov	r4,fp
 4024744:	8d002526 	beq	r17,r20,40247dc <_dtoa_r+0xf9c>
 4024748:	4026e800 	call	4026e80 <__multadd>
 402474c:	a00b883a 	mov	r5,r20
 4024750:	000f883a 	mov	r7,zero
 4024754:	01800284 	movi	r6,10
 4024758:	e009883a 	mov	r4,fp
 402475c:	1023883a 	mov	r17,r2
 4024760:	4026e800 	call	4026e80 <__multadd>
 4024764:	1029883a 	mov	r20,r2
 4024768:	b027883a 	mov	r19,r22
 402476c:	003fc006 	br	4024670 <__flash_rwdata_start+0xffff3b38>
 4024770:	9011883a 	mov	r8,r18
 4024774:	00800e0e 	bge	zero,r2,40247b0 <_dtoa_r+0xf70>
 4024778:	800b883a 	mov	r5,r16
 402477c:	01800044 	movi	r6,1
 4024780:	e009883a 	mov	r4,fp
 4024784:	da001715 	stw	r8,92(sp)
 4024788:	40275ec0 	call	40275ec <__lshift>
 402478c:	a80b883a 	mov	r5,r21
 4024790:	1009883a 	mov	r4,r2
 4024794:	1021883a 	mov	r16,r2
 4024798:	40277340 	call	4027734 <__mcmp>
 402479c:	da001717 	ldw	r8,92(sp)
 40247a0:	0081960e 	bge	zero,r2,4024dfc <_dtoa_r+0x15bc>
 40247a4:	00800e44 	movi	r2,57
 40247a8:	40817026 	beq	r8,r2,4024d6c <_dtoa_r+0x152c>
 40247ac:	ba000c44 	addi	r8,r23,49
 40247b0:	8825883a 	mov	r18,r17
 40247b4:	9dc00044 	addi	r23,r19,1
 40247b8:	9a000005 	stb	r8,0(r19)
 40247bc:	a023883a 	mov	r17,r20
 40247c0:	dc000915 	stw	r16,36(sp)
 40247c4:	003f2406 	br	4024458 <__flash_rwdata_start+0xffff3920>
 40247c8:	00800e44 	movi	r2,57
 40247cc:	9011883a 	mov	r8,r18
 40247d0:	90816626 	beq	r18,r2,4024d6c <_dtoa_r+0x152c>
 40247d4:	05bff516 	blt	zero,r22,40247ac <__flash_rwdata_start+0xffff3c74>
 40247d8:	003ff506 	br	40247b0 <__flash_rwdata_start+0xffff3c78>
 40247dc:	4026e800 	call	4026e80 <__multadd>
 40247e0:	1023883a 	mov	r17,r2
 40247e4:	1029883a 	mov	r20,r2
 40247e8:	003fdf06 	br	4024768 <__flash_rwdata_start+0xffff3c30>
 40247ec:	e009883a 	mov	r4,fp
 40247f0:	4026e580 	call	4026e58 <_Bfree>
 40247f4:	00800044 	movi	r2,1
 40247f8:	003fbc06 	br	40246ec <__flash_rwdata_start+0xffff3bb4>
 40247fc:	a80b883a 	mov	r5,r21
 4024800:	8009883a 	mov	r4,r16
 4024804:	40277340 	call	4027734 <__mcmp>
 4024808:	103edb0e 	bge	r2,zero,4024378 <__flash_rwdata_start+0xffff3840>
 402480c:	800b883a 	mov	r5,r16
 4024810:	000f883a 	mov	r7,zero
 4024814:	01800284 	movi	r6,10
 4024818:	e009883a 	mov	r4,fp
 402481c:	4026e800 	call	4026e80 <__multadd>
 4024820:	1021883a 	mov	r16,r2
 4024824:	d8800517 	ldw	r2,20(sp)
 4024828:	d8c00b17 	ldw	r3,44(sp)
 402482c:	10bfffc4 	addi	r2,r2,-1
 4024830:	d8800515 	stw	r2,20(sp)
 4024834:	183f761e 	bne	r3,zero,4024610 <__flash_rwdata_start+0xffff3ad8>
 4024838:	d9000c17 	ldw	r4,48(sp)
 402483c:	0101730e 	bge	zero,r4,4024e0c <_dtoa_r+0x15cc>
 4024840:	d9000615 	stw	r4,24(sp)
 4024844:	003ed006 	br	4024388 <__flash_rwdata_start+0xffff3850>
 4024848:	00800084 	movi	r2,2
 402484c:	3081861e 	bne	r6,r2,4024e68 <_dtoa_r+0x1628>
 4024850:	d8000b15 	stw	zero,44(sp)
 4024854:	003f3c06 	br	4024548 <__flash_rwdata_start+0xffff3a10>
 4024858:	dc000917 	ldw	r16,36(sp)
 402485c:	003e9206 	br	40242a8 <__flash_rwdata_start+0xffff3770>
 4024860:	d9c00317 	ldw	r7,12(sp)
 4024864:	00800084 	movi	r2,2
 4024868:	11fec50e 	bge	r2,r7,4024380 <__flash_rwdata_start+0xffff3848>
 402486c:	d9000617 	ldw	r4,24(sp)
 4024870:	20013c1e 	bne	r4,zero,4024d64 <_dtoa_r+0x1524>
 4024874:	a80b883a 	mov	r5,r21
 4024878:	000f883a 	mov	r7,zero
 402487c:	01800144 	movi	r6,5
 4024880:	e009883a 	mov	r4,fp
 4024884:	4026e800 	call	4026e80 <__multadd>
 4024888:	100b883a 	mov	r5,r2
 402488c:	8009883a 	mov	r4,r16
 4024890:	102b883a 	mov	r21,r2
 4024894:	40277340 	call	4027734 <__mcmp>
 4024898:	dc000915 	stw	r16,36(sp)
 402489c:	00bf410e 	bge	zero,r2,40245a4 <__flash_rwdata_start+0xffff3a6c>
 40248a0:	d9c00717 	ldw	r7,28(sp)
 40248a4:	00800c44 	movi	r2,49
 40248a8:	38800005 	stb	r2,0(r7)
 40248ac:	d8800517 	ldw	r2,20(sp)
 40248b0:	3dc00044 	addi	r23,r7,1
 40248b4:	10800044 	addi	r2,r2,1
 40248b8:	d8800515 	stw	r2,20(sp)
 40248bc:	003f3d06 	br	40245b4 <__flash_rwdata_start+0xffff3a7c>
 40248c0:	d9800517 	ldw	r6,20(sp)
 40248c4:	d9c00717 	ldw	r7,28(sp)
 40248c8:	00800c44 	movi	r2,49
 40248cc:	31800044 	addi	r6,r6,1
 40248d0:	d9800515 	stw	r6,20(sp)
 40248d4:	38800005 	stb	r2,0(r7)
 40248d8:	003edf06 	br	4024458 <__flash_rwdata_start+0xffff3920>
 40248dc:	d8000b15 	stw	zero,44(sp)
 40248e0:	003c9f06 	br	4023b60 <__flash_rwdata_start+0xffff3028>
 40248e4:	903e7e1e 	bne	r18,zero,40242e0 <__flash_rwdata_start+0xffff37a8>
 40248e8:	00800434 	movhi	r2,16
 40248ec:	10bfffc4 	addi	r2,r2,-1
 40248f0:	9884703a 	and	r2,r19,r2
 40248f4:	1000ea1e 	bne	r2,zero,4024ca0 <_dtoa_r+0x1460>
 40248f8:	9cdffc2c 	andhi	r19,r19,32752
 40248fc:	9800e826 	beq	r19,zero,4024ca0 <_dtoa_r+0x1460>
 4024900:	d9c00817 	ldw	r7,32(sp)
 4024904:	b5800044 	addi	r22,r22,1
 4024908:	04c00044 	movi	r19,1
 402490c:	39c00044 	addi	r7,r7,1
 4024910:	d9c00815 	stw	r7,32(sp)
 4024914:	d8800d17 	ldw	r2,52(sp)
 4024918:	103e721e 	bne	r2,zero,40242e4 <__flash_rwdata_start+0xffff37ac>
 402491c:	00800044 	movi	r2,1
 4024920:	003e7906 	br	4024308 <__flash_rwdata_start+0xffff37d0>
 4024924:	8009883a 	mov	r4,r16
 4024928:	402dbe00 	call	402dbe0 <__floatsidf>
 402492c:	d9800f17 	ldw	r6,60(sp)
 4024930:	d9c01017 	ldw	r7,64(sp)
 4024934:	1009883a 	mov	r4,r2
 4024938:	180b883a 	mov	r5,r3
 402493c:	402c9f80 	call	402c9f8 <__muldf3>
 4024940:	000d883a 	mov	r6,zero
 4024944:	01d00734 	movhi	r7,16412
 4024948:	1009883a 	mov	r4,r2
 402494c:	180b883a 	mov	r5,r3
 4024950:	402b5240 	call	402b524 <__adddf3>
 4024954:	047f3034 	movhi	r17,64704
 4024958:	1021883a 	mov	r16,r2
 402495c:	1c63883a 	add	r17,r3,r17
 4024960:	d9000f17 	ldw	r4,60(sp)
 4024964:	d9401017 	ldw	r5,64(sp)
 4024968:	000d883a 	mov	r6,zero
 402496c:	01d00534 	movhi	r7,16404
 4024970:	402d2640 	call	402d264 <__subdf3>
 4024974:	800d883a 	mov	r6,r16
 4024978:	880f883a 	mov	r7,r17
 402497c:	1009883a 	mov	r4,r2
 4024980:	180b883a 	mov	r5,r3
 4024984:	102b883a 	mov	r21,r2
 4024988:	1829883a 	mov	r20,r3
 402498c:	402c8280 	call	402c828 <__gedf2>
 4024990:	00806c16 	blt	zero,r2,4024b44 <_dtoa_r+0x1304>
 4024994:	89e0003c 	xorhi	r7,r17,32768
 4024998:	800d883a 	mov	r6,r16
 402499c:	a809883a 	mov	r4,r21
 40249a0:	a00b883a 	mov	r5,r20
 40249a4:	402c9040 	call	402c904 <__ledf2>
 40249a8:	103d7e0e 	bge	r2,zero,4023fa4 <__flash_rwdata_start+0xffff346c>
 40249ac:	002b883a 	mov	r21,zero
 40249b0:	0023883a 	mov	r17,zero
 40249b4:	003efb06 	br	40245a4 <__flash_rwdata_start+0xffff3a6c>
 40249b8:	d8800717 	ldw	r2,28(sp)
 40249bc:	003bd006 	br	4023900 <__flash_rwdata_start+0xffff2dc8>
 40249c0:	d9000a17 	ldw	r4,40(sp)
 40249c4:	d9800d17 	ldw	r6,52(sp)
 40249c8:	dd400a15 	stw	r21,40(sp)
 40249cc:	a905c83a 	sub	r2,r21,r4
 40249d0:	308d883a 	add	r6,r6,r2
 40249d4:	d9800d15 	stw	r6,52(sp)
 40249d8:	002b883a 	mov	r21,zero
 40249dc:	003e0606 	br	40241f8 <__flash_rwdata_start+0xffff36c0>
 40249e0:	9023883a 	mov	r17,r18
 40249e4:	9829883a 	mov	r20,r19
 40249e8:	04000084 	movi	r16,2
 40249ec:	003c9206 	br	4023c38 <__flash_rwdata_start+0xffff3100>
 40249f0:	04000044 	movi	r16,1
 40249f4:	dc000c15 	stw	r16,48(sp)
 40249f8:	dc000615 	stw	r16,24(sp)
 40249fc:	dc002215 	stw	r16,136(sp)
 4024a00:	e0001115 	stw	zero,68(fp)
 4024a04:	000b883a 	mov	r5,zero
 4024a08:	003c6906 	br	4023bb0 <__flash_rwdata_start+0xffff3078>
 4024a0c:	3021883a 	mov	r16,r6
 4024a10:	003ffb06 	br	4024a00 <__flash_rwdata_start+0xffff3ec8>
 4024a14:	1000021e 	bne	r2,zero,4024a20 <_dtoa_r+0x11e0>
 4024a18:	4200004c 	andi	r8,r8,1
 4024a1c:	403e7d1e 	bne	r8,zero,4024414 <__flash_rwdata_start+0xffff38dc>
 4024a20:	01000c04 	movi	r4,48
 4024a24:	00000106 	br	4024a2c <_dtoa_r+0x11ec>
 4024a28:	102f883a 	mov	r23,r2
 4024a2c:	b8bfffc4 	addi	r2,r23,-1
 4024a30:	10c00007 	ldb	r3,0(r2)
 4024a34:	193ffc26 	beq	r3,r4,4024a28 <__flash_rwdata_start+0xffff3ef0>
 4024a38:	003e8706 	br	4024458 <__flash_rwdata_start+0xffff3920>
 4024a3c:	d8800517 	ldw	r2,20(sp)
 4024a40:	00a3c83a 	sub	r17,zero,r2
 4024a44:	8800a426 	beq	r17,zero,4024cd8 <_dtoa_r+0x1498>
 4024a48:	888003cc 	andi	r2,r17,15
 4024a4c:	100490fa 	slli	r2,r2,3
 4024a50:	00c00034 	movhi	r3,0
 4024a54:	18c08c04 	addi	r3,r3,560
 4024a58:	1885883a 	add	r2,r3,r2
 4024a5c:	11800017 	ldw	r6,0(r2)
 4024a60:	11c00117 	ldw	r7,4(r2)
 4024a64:	9009883a 	mov	r4,r18
 4024a68:	980b883a 	mov	r5,r19
 4024a6c:	8823d13a 	srai	r17,r17,4
 4024a70:	402c9f80 	call	402c9f8 <__muldf3>
 4024a74:	d8800f15 	stw	r2,60(sp)
 4024a78:	d8c01015 	stw	r3,64(sp)
 4024a7c:	8800e826 	beq	r17,zero,4024e20 <_dtoa_r+0x15e0>
 4024a80:	05000034 	movhi	r20,0
 4024a84:	a5008204 	addi	r20,r20,520
 4024a88:	04000084 	movi	r16,2
 4024a8c:	8980004c 	andi	r6,r17,1
 4024a90:	1009883a 	mov	r4,r2
 4024a94:	8823d07a 	srai	r17,r17,1
 4024a98:	180b883a 	mov	r5,r3
 4024a9c:	30000426 	beq	r6,zero,4024ab0 <_dtoa_r+0x1270>
 4024aa0:	a1800017 	ldw	r6,0(r20)
 4024aa4:	a1c00117 	ldw	r7,4(r20)
 4024aa8:	84000044 	addi	r16,r16,1
 4024aac:	402c9f80 	call	402c9f8 <__muldf3>
 4024ab0:	a5000204 	addi	r20,r20,8
 4024ab4:	883ff51e 	bne	r17,zero,4024a8c <__flash_rwdata_start+0xffff3f54>
 4024ab8:	d8800f15 	stw	r2,60(sp)
 4024abc:	d8c01015 	stw	r3,64(sp)
 4024ac0:	003c7606 	br	4023c9c <__flash_rwdata_start+0xffff3164>
 4024ac4:	00c00c04 	movi	r3,48
 4024ac8:	10c00005 	stb	r3,0(r2)
 4024acc:	d8c00517 	ldw	r3,20(sp)
 4024ad0:	bd3fffc3 	ldbu	r20,-1(r23)
 4024ad4:	18c00044 	addi	r3,r3,1
 4024ad8:	d8c00515 	stw	r3,20(sp)
 4024adc:	003db906 	br	40241c4 <__flash_rwdata_start+0xffff368c>
 4024ae0:	89400117 	ldw	r5,4(r17)
 4024ae4:	e009883a 	mov	r4,fp
 4024ae8:	4026db00 	call	4026db0 <_Balloc>
 4024aec:	89800417 	ldw	r6,16(r17)
 4024af0:	89400304 	addi	r5,r17,12
 4024af4:	11000304 	addi	r4,r2,12
 4024af8:	31800084 	addi	r6,r6,2
 4024afc:	318d883a 	add	r6,r6,r6
 4024b00:	318d883a 	add	r6,r6,r6
 4024b04:	1027883a 	mov	r19,r2
 4024b08:	4020d540 	call	4020d54 <memcpy>
 4024b0c:	01800044 	movi	r6,1
 4024b10:	980b883a 	mov	r5,r19
 4024b14:	e009883a 	mov	r4,fp
 4024b18:	40275ec0 	call	40275ec <__lshift>
 4024b1c:	1029883a 	mov	r20,r2
 4024b20:	003ecc06 	br	4024654 <__flash_rwdata_start+0xffff3b1c>
 4024b24:	00800e44 	movi	r2,57
 4024b28:	90809026 	beq	r18,r2,4024d6c <_dtoa_r+0x152c>
 4024b2c:	92000044 	addi	r8,r18,1
 4024b30:	003f1f06 	br	40247b0 <__flash_rwdata_start+0xffff3c78>
 4024b34:	9011883a 	mov	r8,r18
 4024b38:	8825883a 	mov	r18,r17
 4024b3c:	a023883a 	mov	r17,r20
 4024b40:	003e2906 	br	40243e8 <__flash_rwdata_start+0xffff38b0>
 4024b44:	002b883a 	mov	r21,zero
 4024b48:	0023883a 	mov	r17,zero
 4024b4c:	003f5406 	br	40248a0 <__flash_rwdata_start+0xffff3d68>
 4024b50:	61bfffc4 	addi	r6,r12,-1
 4024b54:	300490fa 	slli	r2,r6,3
 4024b58:	00c00034 	movhi	r3,0
 4024b5c:	18c08c04 	addi	r3,r3,560
 4024b60:	1885883a 	add	r2,r3,r2
 4024b64:	11000017 	ldw	r4,0(r2)
 4024b68:	11400117 	ldw	r5,4(r2)
 4024b6c:	d8800717 	ldw	r2,28(sp)
 4024b70:	880f883a 	mov	r7,r17
 4024b74:	d9801215 	stw	r6,72(sp)
 4024b78:	800d883a 	mov	r6,r16
 4024b7c:	db001615 	stw	r12,88(sp)
 4024b80:	15c00044 	addi	r23,r2,1
 4024b84:	402c9f80 	call	402c9f8 <__muldf3>
 4024b88:	d9401017 	ldw	r5,64(sp)
 4024b8c:	d9000f17 	ldw	r4,60(sp)
 4024b90:	d8c01515 	stw	r3,84(sp)
 4024b94:	d8801415 	stw	r2,80(sp)
 4024b98:	402db600 	call	402db60 <__fixdfsi>
 4024b9c:	1009883a 	mov	r4,r2
 4024ba0:	1021883a 	mov	r16,r2
 4024ba4:	402dbe00 	call	402dbe0 <__floatsidf>
 4024ba8:	d9000f17 	ldw	r4,60(sp)
 4024bac:	d9401017 	ldw	r5,64(sp)
 4024bb0:	100d883a 	mov	r6,r2
 4024bb4:	180f883a 	mov	r7,r3
 4024bb8:	402d2640 	call	402d264 <__subdf3>
 4024bbc:	1829883a 	mov	r20,r3
 4024bc0:	d8c00717 	ldw	r3,28(sp)
 4024bc4:	84000c04 	addi	r16,r16,48
 4024bc8:	1023883a 	mov	r17,r2
 4024bcc:	1c000005 	stb	r16,0(r3)
 4024bd0:	db001617 	ldw	r12,88(sp)
 4024bd4:	00800044 	movi	r2,1
 4024bd8:	60802226 	beq	r12,r2,4024c64 <_dtoa_r+0x1424>
 4024bdc:	d9c00717 	ldw	r7,28(sp)
 4024be0:	8805883a 	mov	r2,r17
 4024be4:	b82b883a 	mov	r21,r23
 4024be8:	3b19883a 	add	r12,r7,r12
 4024bec:	6023883a 	mov	r17,r12
 4024bf0:	a007883a 	mov	r3,r20
 4024bf4:	dc800f15 	stw	r18,60(sp)
 4024bf8:	000d883a 	mov	r6,zero
 4024bfc:	01d00934 	movhi	r7,16420
 4024c00:	1009883a 	mov	r4,r2
 4024c04:	180b883a 	mov	r5,r3
 4024c08:	402c9f80 	call	402c9f8 <__muldf3>
 4024c0c:	180b883a 	mov	r5,r3
 4024c10:	1009883a 	mov	r4,r2
 4024c14:	1829883a 	mov	r20,r3
 4024c18:	1025883a 	mov	r18,r2
 4024c1c:	402db600 	call	402db60 <__fixdfsi>
 4024c20:	1009883a 	mov	r4,r2
 4024c24:	1021883a 	mov	r16,r2
 4024c28:	402dbe00 	call	402dbe0 <__floatsidf>
 4024c2c:	100d883a 	mov	r6,r2
 4024c30:	180f883a 	mov	r7,r3
 4024c34:	9009883a 	mov	r4,r18
 4024c38:	a00b883a 	mov	r5,r20
 4024c3c:	84000c04 	addi	r16,r16,48
 4024c40:	402d2640 	call	402d264 <__subdf3>
 4024c44:	ad400044 	addi	r21,r21,1
 4024c48:	ac3fffc5 	stb	r16,-1(r21)
 4024c4c:	ac7fea1e 	bne	r21,r17,4024bf8 <__flash_rwdata_start+0xffff40c0>
 4024c50:	1023883a 	mov	r17,r2
 4024c54:	d8801217 	ldw	r2,72(sp)
 4024c58:	dc800f17 	ldw	r18,60(sp)
 4024c5c:	1829883a 	mov	r20,r3
 4024c60:	b8af883a 	add	r23,r23,r2
 4024c64:	d9001417 	ldw	r4,80(sp)
 4024c68:	d9401517 	ldw	r5,84(sp)
 4024c6c:	000d883a 	mov	r6,zero
 4024c70:	01cff834 	movhi	r7,16352
 4024c74:	402b5240 	call	402b524 <__adddf3>
 4024c78:	880d883a 	mov	r6,r17
 4024c7c:	a00f883a 	mov	r7,r20
 4024c80:	1009883a 	mov	r4,r2
 4024c84:	180b883a 	mov	r5,r3
 4024c88:	402c9040 	call	402c904 <__ledf2>
 4024c8c:	10003e0e 	bge	r2,zero,4024d88 <_dtoa_r+0x1548>
 4024c90:	d9001317 	ldw	r4,76(sp)
 4024c94:	bd3fffc3 	ldbu	r20,-1(r23)
 4024c98:	d9000515 	stw	r4,20(sp)
 4024c9c:	003d3b06 	br	402418c <__flash_rwdata_start+0xffff3654>
 4024ca0:	0027883a 	mov	r19,zero
 4024ca4:	003f1b06 	br	4024914 <__flash_rwdata_start+0xffff3ddc>
 4024ca8:	d8800817 	ldw	r2,32(sp)
 4024cac:	11e9c83a 	sub	r20,r2,r7
 4024cb0:	0005883a 	mov	r2,zero
 4024cb4:	003d5406 	br	4024208 <__flash_rwdata_start+0xffff36d0>
 4024cb8:	00800044 	movi	r2,1
 4024cbc:	003dc706 	br	40243dc <__flash_rwdata_start+0xffff38a4>
 4024cc0:	d8c00217 	ldw	r3,8(sp)
 4024cc4:	00800d84 	movi	r2,54
 4024cc8:	dd400a17 	ldw	r21,40(sp)
 4024ccc:	10c5c83a 	sub	r2,r2,r3
 4024cd0:	dd000817 	ldw	r20,32(sp)
 4024cd4:	003d4c06 	br	4024208 <__flash_rwdata_start+0xffff36d0>
 4024cd8:	dc800f15 	stw	r18,60(sp)
 4024cdc:	dcc01015 	stw	r19,64(sp)
 4024ce0:	04000084 	movi	r16,2
 4024ce4:	003bed06 	br	4023c9c <__flash_rwdata_start+0xffff3164>
 4024ce8:	d9000617 	ldw	r4,24(sp)
 4024cec:	203f0d26 	beq	r4,zero,4024924 <__flash_rwdata_start+0xffff3dec>
 4024cf0:	d9800c17 	ldw	r6,48(sp)
 4024cf4:	01bcab0e 	bge	zero,r6,4023fa4 <__flash_rwdata_start+0xffff346c>
 4024cf8:	d9401017 	ldw	r5,64(sp)
 4024cfc:	d9000f17 	ldw	r4,60(sp)
 4024d00:	000d883a 	mov	r6,zero
 4024d04:	01d00934 	movhi	r7,16420
 4024d08:	402c9f80 	call	402c9f8 <__muldf3>
 4024d0c:	81000044 	addi	r4,r16,1
 4024d10:	d8800f15 	stw	r2,60(sp)
 4024d14:	d8c01015 	stw	r3,64(sp)
 4024d18:	402dbe00 	call	402dbe0 <__floatsidf>
 4024d1c:	d9800f17 	ldw	r6,60(sp)
 4024d20:	d9c01017 	ldw	r7,64(sp)
 4024d24:	1009883a 	mov	r4,r2
 4024d28:	180b883a 	mov	r5,r3
 4024d2c:	402c9f80 	call	402c9f8 <__muldf3>
 4024d30:	01d00734 	movhi	r7,16412
 4024d34:	000d883a 	mov	r6,zero
 4024d38:	1009883a 	mov	r4,r2
 4024d3c:	180b883a 	mov	r5,r3
 4024d40:	402b5240 	call	402b524 <__adddf3>
 4024d44:	d9c00517 	ldw	r7,20(sp)
 4024d48:	047f3034 	movhi	r17,64704
 4024d4c:	1021883a 	mov	r16,r2
 4024d50:	39ffffc4 	addi	r7,r7,-1
 4024d54:	d9c01315 	stw	r7,76(sp)
 4024d58:	1c63883a 	add	r17,r3,r17
 4024d5c:	db000c17 	ldw	r12,48(sp)
 4024d60:	003bea06 	br	4023d0c <__flash_rwdata_start+0xffff31d4>
 4024d64:	dc000915 	stw	r16,36(sp)
 4024d68:	003e0e06 	br	40245a4 <__flash_rwdata_start+0xffff3a6c>
 4024d6c:	01000e44 	movi	r4,57
 4024d70:	8825883a 	mov	r18,r17
 4024d74:	9dc00044 	addi	r23,r19,1
 4024d78:	99000005 	stb	r4,0(r19)
 4024d7c:	a023883a 	mov	r17,r20
 4024d80:	dc000915 	stw	r16,36(sp)
 4024d84:	003da406 	br	4024418 <__flash_rwdata_start+0xffff38e0>
 4024d88:	d9801417 	ldw	r6,80(sp)
 4024d8c:	d9c01517 	ldw	r7,84(sp)
 4024d90:	0009883a 	mov	r4,zero
 4024d94:	014ff834 	movhi	r5,16352
 4024d98:	402d2640 	call	402d264 <__subdf3>
 4024d9c:	880d883a 	mov	r6,r17
 4024da0:	a00f883a 	mov	r7,r20
 4024da4:	1009883a 	mov	r4,r2
 4024da8:	180b883a 	mov	r5,r3
 4024dac:	402c8280 	call	402c828 <__gedf2>
 4024db0:	00bc7c0e 	bge	zero,r2,4023fa4 <__flash_rwdata_start+0xffff346c>
 4024db4:	01000c04 	movi	r4,48
 4024db8:	00000106 	br	4024dc0 <_dtoa_r+0x1580>
 4024dbc:	102f883a 	mov	r23,r2
 4024dc0:	b8bfffc4 	addi	r2,r23,-1
 4024dc4:	10c00007 	ldb	r3,0(r2)
 4024dc8:	193ffc26 	beq	r3,r4,4024dbc <__flash_rwdata_start+0xffff4284>
 4024dcc:	d9801317 	ldw	r6,76(sp)
 4024dd0:	d9800515 	stw	r6,20(sp)
 4024dd4:	003c4406 	br	4023ee8 <__flash_rwdata_start+0xffff33b0>
 4024dd8:	d9801317 	ldw	r6,76(sp)
 4024ddc:	d9800515 	stw	r6,20(sp)
 4024de0:	003cea06 	br	402418c <__flash_rwdata_start+0xffff3654>
 4024de4:	dd800f17 	ldw	r22,60(sp)
 4024de8:	dcc01017 	ldw	r19,64(sp)
 4024dec:	dc801217 	ldw	r18,72(sp)
 4024df0:	003c6c06 	br	4023fa4 <__flash_rwdata_start+0xffff346c>
 4024df4:	903e031e 	bne	r18,zero,4024604 <__flash_rwdata_start+0xffff3acc>
 4024df8:	003ebb06 	br	40248e8 <__flash_rwdata_start+0xffff3db0>
 4024dfc:	103e6c1e 	bne	r2,zero,40247b0 <__flash_rwdata_start+0xffff3c78>
 4024e00:	4080004c 	andi	r2,r8,1
 4024e04:	103e6a26 	beq	r2,zero,40247b0 <__flash_rwdata_start+0xffff3c78>
 4024e08:	003e6606 	br	40247a4 <__flash_rwdata_start+0xffff3c6c>
 4024e0c:	d8c00317 	ldw	r3,12(sp)
 4024e10:	00800084 	movi	r2,2
 4024e14:	10c02916 	blt	r2,r3,4024ebc <_dtoa_r+0x167c>
 4024e18:	d9000c17 	ldw	r4,48(sp)
 4024e1c:	003e8806 	br	4024840 <__flash_rwdata_start+0xffff3d08>
 4024e20:	04000084 	movi	r16,2
 4024e24:	003b9d06 	br	4023c9c <__flash_rwdata_start+0xffff3164>
 4024e28:	d9001317 	ldw	r4,76(sp)
 4024e2c:	d9000515 	stw	r4,20(sp)
 4024e30:	003cd606 	br	402418c <__flash_rwdata_start+0xffff3654>
 4024e34:	d8801317 	ldw	r2,76(sp)
 4024e38:	d8800515 	stw	r2,20(sp)
 4024e3c:	003c2a06 	br	4023ee8 <__flash_rwdata_start+0xffff33b0>
 4024e40:	d9800317 	ldw	r6,12(sp)
 4024e44:	00800084 	movi	r2,2
 4024e48:	11801516 	blt	r2,r6,4024ea0 <_dtoa_r+0x1660>
 4024e4c:	d9c00c17 	ldw	r7,48(sp)
 4024e50:	d9c00615 	stw	r7,24(sp)
 4024e54:	003df706 	br	4024634 <__flash_rwdata_start+0xffff3afc>
 4024e58:	193d3926 	beq	r3,r4,4024340 <__flash_rwdata_start+0xffff3808>
 4024e5c:	00c00f04 	movi	r3,60
 4024e60:	1885c83a 	sub	r2,r3,r2
 4024e64:	003ddf06 	br	40245e4 <__flash_rwdata_start+0xffff3aac>
 4024e68:	e009883a 	mov	r4,fp
 4024e6c:	e0001115 	stw	zero,68(fp)
 4024e70:	000b883a 	mov	r5,zero
 4024e74:	4026db00 	call	4026db0 <_Balloc>
 4024e78:	d8800715 	stw	r2,28(sp)
 4024e7c:	d8c00717 	ldw	r3,28(sp)
 4024e80:	00bfffc4 	movi	r2,-1
 4024e84:	01000044 	movi	r4,1
 4024e88:	d8800c15 	stw	r2,48(sp)
 4024e8c:	e0c01015 	stw	r3,64(fp)
 4024e90:	d9000b15 	stw	r4,44(sp)
 4024e94:	d8800615 	stw	r2,24(sp)
 4024e98:	d8002215 	stw	zero,136(sp)
 4024e9c:	003c4106 	br	4023fa4 <__flash_rwdata_start+0xffff346c>
 4024ea0:	d8c00c17 	ldw	r3,48(sp)
 4024ea4:	d8c00615 	stw	r3,24(sp)
 4024ea8:	003e7006 	br	402486c <__flash_rwdata_start+0xffff3d34>
 4024eac:	04400044 	movi	r17,1
 4024eb0:	003b2006 	br	4023b34 <__flash_rwdata_start+0xffff2ffc>
 4024eb4:	000b883a 	mov	r5,zero
 4024eb8:	003b3d06 	br	4023bb0 <__flash_rwdata_start+0xffff3078>
 4024ebc:	d8800c17 	ldw	r2,48(sp)
 4024ec0:	d8800615 	stw	r2,24(sp)
 4024ec4:	003e6906 	br	402486c <__flash_rwdata_start+0xffff3d34>

04024ec8 <__sflush_r>:
 4024ec8:	2880030b 	ldhu	r2,12(r5)
 4024ecc:	defffb04 	addi	sp,sp,-20
 4024ed0:	dcc00315 	stw	r19,12(sp)
 4024ed4:	dc400115 	stw	r17,4(sp)
 4024ed8:	dfc00415 	stw	ra,16(sp)
 4024edc:	dc800215 	stw	r18,8(sp)
 4024ee0:	dc000015 	stw	r16,0(sp)
 4024ee4:	10c0020c 	andi	r3,r2,8
 4024ee8:	2823883a 	mov	r17,r5
 4024eec:	2027883a 	mov	r19,r4
 4024ef0:	1800311e 	bne	r3,zero,4024fb8 <__sflush_r+0xf0>
 4024ef4:	28c00117 	ldw	r3,4(r5)
 4024ef8:	10820014 	ori	r2,r2,2048
 4024efc:	2880030d 	sth	r2,12(r5)
 4024f00:	00c04b0e 	bge	zero,r3,4025030 <__sflush_r+0x168>
 4024f04:	8a000a17 	ldw	r8,40(r17)
 4024f08:	40002326 	beq	r8,zero,4024f98 <__sflush_r+0xd0>
 4024f0c:	9c000017 	ldw	r16,0(r19)
 4024f10:	10c4000c 	andi	r3,r2,4096
 4024f14:	98000015 	stw	zero,0(r19)
 4024f18:	18004826 	beq	r3,zero,402503c <__sflush_r+0x174>
 4024f1c:	89801417 	ldw	r6,80(r17)
 4024f20:	10c0010c 	andi	r3,r2,4
 4024f24:	18000626 	beq	r3,zero,4024f40 <__sflush_r+0x78>
 4024f28:	88c00117 	ldw	r3,4(r17)
 4024f2c:	88800c17 	ldw	r2,48(r17)
 4024f30:	30cdc83a 	sub	r6,r6,r3
 4024f34:	10000226 	beq	r2,zero,4024f40 <__sflush_r+0x78>
 4024f38:	88800f17 	ldw	r2,60(r17)
 4024f3c:	308dc83a 	sub	r6,r6,r2
 4024f40:	89400717 	ldw	r5,28(r17)
 4024f44:	000f883a 	mov	r7,zero
 4024f48:	9809883a 	mov	r4,r19
 4024f4c:	403ee83a 	callr	r8
 4024f50:	00ffffc4 	movi	r3,-1
 4024f54:	10c04426 	beq	r2,r3,4025068 <__sflush_r+0x1a0>
 4024f58:	88c0030b 	ldhu	r3,12(r17)
 4024f5c:	89000417 	ldw	r4,16(r17)
 4024f60:	88000115 	stw	zero,4(r17)
 4024f64:	197dffcc 	andi	r5,r3,63487
 4024f68:	8940030d 	sth	r5,12(r17)
 4024f6c:	89000015 	stw	r4,0(r17)
 4024f70:	18c4000c 	andi	r3,r3,4096
 4024f74:	18002c1e 	bne	r3,zero,4025028 <__sflush_r+0x160>
 4024f78:	89400c17 	ldw	r5,48(r17)
 4024f7c:	9c000015 	stw	r16,0(r19)
 4024f80:	28000526 	beq	r5,zero,4024f98 <__sflush_r+0xd0>
 4024f84:	88801004 	addi	r2,r17,64
 4024f88:	28800226 	beq	r5,r2,4024f94 <__sflush_r+0xcc>
 4024f8c:	9809883a 	mov	r4,r19
 4024f90:	40256440 	call	4025644 <_free_r>
 4024f94:	88000c15 	stw	zero,48(r17)
 4024f98:	0005883a 	mov	r2,zero
 4024f9c:	dfc00417 	ldw	ra,16(sp)
 4024fa0:	dcc00317 	ldw	r19,12(sp)
 4024fa4:	dc800217 	ldw	r18,8(sp)
 4024fa8:	dc400117 	ldw	r17,4(sp)
 4024fac:	dc000017 	ldw	r16,0(sp)
 4024fb0:	dec00504 	addi	sp,sp,20
 4024fb4:	f800283a 	ret
 4024fb8:	2c800417 	ldw	r18,16(r5)
 4024fbc:	903ff626 	beq	r18,zero,4024f98 <__flash_rwdata_start+0xffff4460>
 4024fc0:	2c000017 	ldw	r16,0(r5)
 4024fc4:	108000cc 	andi	r2,r2,3
 4024fc8:	2c800015 	stw	r18,0(r5)
 4024fcc:	84a1c83a 	sub	r16,r16,r18
 4024fd0:	1000131e 	bne	r2,zero,4025020 <__sflush_r+0x158>
 4024fd4:	28800517 	ldw	r2,20(r5)
 4024fd8:	88800215 	stw	r2,8(r17)
 4024fdc:	04000316 	blt	zero,r16,4024fec <__sflush_r+0x124>
 4024fe0:	003fed06 	br	4024f98 <__flash_rwdata_start+0xffff4460>
 4024fe4:	90a5883a 	add	r18,r18,r2
 4024fe8:	043feb0e 	bge	zero,r16,4024f98 <__flash_rwdata_start+0xffff4460>
 4024fec:	88800917 	ldw	r2,36(r17)
 4024ff0:	89400717 	ldw	r5,28(r17)
 4024ff4:	800f883a 	mov	r7,r16
 4024ff8:	900d883a 	mov	r6,r18
 4024ffc:	9809883a 	mov	r4,r19
 4025000:	103ee83a 	callr	r2
 4025004:	80a1c83a 	sub	r16,r16,r2
 4025008:	00bff616 	blt	zero,r2,4024fe4 <__flash_rwdata_start+0xffff44ac>
 402500c:	88c0030b 	ldhu	r3,12(r17)
 4025010:	00bfffc4 	movi	r2,-1
 4025014:	18c01014 	ori	r3,r3,64
 4025018:	88c0030d 	sth	r3,12(r17)
 402501c:	003fdf06 	br	4024f9c <__flash_rwdata_start+0xffff4464>
 4025020:	0005883a 	mov	r2,zero
 4025024:	003fec06 	br	4024fd8 <__flash_rwdata_start+0xffff44a0>
 4025028:	88801415 	stw	r2,80(r17)
 402502c:	003fd206 	br	4024f78 <__flash_rwdata_start+0xffff4440>
 4025030:	28c00f17 	ldw	r3,60(r5)
 4025034:	00ffb316 	blt	zero,r3,4024f04 <__flash_rwdata_start+0xffff43cc>
 4025038:	003fd706 	br	4024f98 <__flash_rwdata_start+0xffff4460>
 402503c:	89400717 	ldw	r5,28(r17)
 4025040:	000d883a 	mov	r6,zero
 4025044:	01c00044 	movi	r7,1
 4025048:	9809883a 	mov	r4,r19
 402504c:	403ee83a 	callr	r8
 4025050:	100d883a 	mov	r6,r2
 4025054:	00bfffc4 	movi	r2,-1
 4025058:	30801426 	beq	r6,r2,40250ac <__sflush_r+0x1e4>
 402505c:	8880030b 	ldhu	r2,12(r17)
 4025060:	8a000a17 	ldw	r8,40(r17)
 4025064:	003fae06 	br	4024f20 <__flash_rwdata_start+0xffff43e8>
 4025068:	98c00017 	ldw	r3,0(r19)
 402506c:	183fba26 	beq	r3,zero,4024f58 <__flash_rwdata_start+0xffff4420>
 4025070:	01000744 	movi	r4,29
 4025074:	19000626 	beq	r3,r4,4025090 <__sflush_r+0x1c8>
 4025078:	01000584 	movi	r4,22
 402507c:	19000426 	beq	r3,r4,4025090 <__sflush_r+0x1c8>
 4025080:	88c0030b 	ldhu	r3,12(r17)
 4025084:	18c01014 	ori	r3,r3,64
 4025088:	88c0030d 	sth	r3,12(r17)
 402508c:	003fc306 	br	4024f9c <__flash_rwdata_start+0xffff4464>
 4025090:	8880030b 	ldhu	r2,12(r17)
 4025094:	88c00417 	ldw	r3,16(r17)
 4025098:	88000115 	stw	zero,4(r17)
 402509c:	10bdffcc 	andi	r2,r2,63487
 40250a0:	8880030d 	sth	r2,12(r17)
 40250a4:	88c00015 	stw	r3,0(r17)
